---
triple:          'arm64-apple-darwin'
binary-path:     a.out
relocations:
  - { offsetInCU: 0x3529, offset: 0x3529, size: 0x8, addend: 0x0, symName: __ZNSt3__124__put_character_sequenceB8ue170006IcNS_11char_traitsIcEEEERNS_13basic_ostreamIT_T0_EES7_PKS4_m, symObjAddr: 0x1520, symBinAddr: 0x100002238, symSize: 0x1EC }
  - { offsetInCU: 0x4DDA, offset: 0x4DDA, size: 0x8, addend: 0x0, symName: __ZNSt3__1rsB8ue170006IcNS_11char_traitsIcEENS_9allocatorIcEEEERNS_13basic_istreamIT_T0_EES9_RNS_12basic_stringIS6_S7_T1_EE, symObjAddr: 0x3CC, symBinAddr: 0x1000010E4, symSize: 0x31C }
  - { offsetInCU: 0x4EA9, offset: 0x4EA9, size: 0x8, addend: 0x0, symName: __ZNSt3__1eqB8ue170006IcNS_11char_traitsIcEENS_9allocatorIcEEEEbRKNS_12basic_stringIT_T0_T1_EEPKS6_, symObjAddr: 0x714, symBinAddr: 0x10000142C, symSize: 0xAC }
  - { offsetInCU: 0x4F10, offset: 0x4F10, size: 0x8, addend: 0x0, symName: __ZNSt3__1lsB8ue170006INS_11char_traitsIcEEEERNS_13basic_ostreamIcT_EES6_PKc, symObjAddr: 0x7C0, symBinAddr: 0x1000014D8, symSize: 0x48 }
  - { offsetInCU: 0x4F56, offset: 0x4F56, size: 0x8, addend: 0x0, symName: __ZNSt3__14endlB8ue170006IcNS_11char_traitsIcEEEERNS_13basic_ostreamIT_T0_EES7_, symObjAddr: 0x834, symBinAddr: 0x10000154C, symSize: 0x58 }
  - { offsetInCU: 0x4F96, offset: 0x4F96, size: 0x8, addend: 0x0, symName: __ZNSt3__17getlineB8ue170006IcNS_11char_traitsIcEENS_9allocatorIcEEEERNS_13basic_istreamIT_T0_EES9_RNS_12basic_stringIS6_S7_T1_EES6_, symObjAddr: 0x88C, symBinAddr: 0x1000015A4, symSize: 0x234 }
  - { offsetInCU: 0x57EB, offset: 0x57EB, size: 0x8, addend: 0x0, symName: __ZNSt3__19use_facetB8ue170006INS_5ctypeIcEEEERKT_RKNS_6localeE, symObjAddr: 0xDF0, symBinAddr: 0x100001B08, symSize: 0x2C }
  - { offsetInCU: 0x5DFE, offset: 0x5DFE, size: 0x8, addend: 0x0, symName: __ZNSt3__118__constexpr_strlenB8ue170006EPKc, symObjAddr: 0x14A0, symBinAddr: 0x1000021B8, symSize: 0x24 }
  - { offsetInCU: 0x5E2A, offset: 0x5E2A, size: 0x8, addend: 0x0, symName: __ZNSt3__116__pad_and_outputB8ue170006IcNS_11char_traitsIcEEEENS_19ostreambuf_iteratorIT_T0_EES6_PKS4_S8_S8_RNS_8ios_baseES4_, symObjAddr: 0x1728, symBinAddr: 0x100002440, symSize: 0x240 }
  - { offsetInCU: 0x5EF9, offset: 0x5EF9, size: 0x8, addend: 0x0, symName: __ZNSt3__112__to_addressB8ue170006IKcEEPT_S3_, symObjAddr: 0x1B28, symBinAddr: 0x100002840, symSize: 0x14 }
  - { offsetInCU: 0x9380, offset: 0x9380, size: 0x8, addend: 0x0, symName: _main, symObjAddr: 0x0, symBinAddr: 0x100000D18, symSize: 0x3A0 }
  - { offsetInCU: 0x941B, offset: 0x941B, size: 0x8, addend: 0x0, symName: __ZNSt3__112basic_stringIcNS_11char_traitsIcEENS_9allocatorIcEEEC1B8ue170006Ev, symObjAddr: 0x3A0, symBinAddr: 0x1000010B8, symSize: 0x2C }
  - { offsetInCU: 0x9443, offset: 0x9443, size: 0x8, addend: 0x0, symName: __ZNKSt3__19basic_iosIcNS_11char_traitsIcEEEcvbB8ue170006Ev, symObjAddr: 0x6E8, symBinAddr: 0x100001400, symSize: 0x2C }
  - { offsetInCU: 0x9467, offset: 0x9467, size: 0x8, addend: 0x0, symName: __ZNSt3__113basic_ostreamIcNS_11char_traitsIcEEElsB8ue170006EPFRS3_S4_E, symObjAddr: 0x808, symBinAddr: 0x100001520, symSize: 0x2C }
  - { offsetInCU: 0x9499, offset: 0x9499, size: 0x8, addend: 0x0, symName: __ZNSt3__112basic_stringIcNS_11char_traitsIcEENS_9allocatorIcEEEC2B8ue170006Ev, symObjAddr: 0xAC0, symBinAddr: 0x1000017D8, symSize: 0x48 }
  - { offsetInCU: 0x94C6, offset: 0x94C6, size: 0x8, addend: 0x0, symName: __ZNSt3__117__compressed_pairINS_12basic_stringIcNS_11char_traitsIcEENS_9allocatorIcEEE5__repES5_EC1B8ue170006INS_18__default_init_tagESA_EEOT_OT0_, symObjAddr: 0xB08, symBinAddr: 0x100001820, symSize: 0x3C }
  - { offsetInCU: 0x951C, offset: 0x951C, size: 0x8, addend: 0x0, symName: __ZNSt3__112basic_stringIcNS_11char_traitsIcEENS_9allocatorIcEEE14__default_initB8ue170006Ev, symObjAddr: 0xB50, symBinAddr: 0x100001868, symSize: 0x40 }
  - { offsetInCU: 0x9540, offset: 0x9540, size: 0x8, addend: 0x0, symName: __ZNSt3__117__compressed_pairINS_12basic_stringIcNS_11char_traitsIcEENS_9allocatorIcEEE5__repES5_EC2B8ue170006INS_18__default_init_tagESA_EEOT_OT0_, symObjAddr: 0xB90, symBinAddr: 0x1000018A8, symSize: 0x3C }
  - { offsetInCU: 0x9596, offset: 0x9596, size: 0x8, addend: 0x0, symName: __ZNSt3__122__compressed_pair_elemINS_12basic_stringIcNS_11char_traitsIcEENS_9allocatorIcEEE5__repELi0ELb0EEC2B8ue170006ENS_18__default_init_tagE, symObjAddr: 0xBCC, symBinAddr: 0x1000018E4, symSize: 0x14 }
  - { offsetInCU: 0x95C8, offset: 0x95C8, size: 0x8, addend: 0x0, symName: __ZNSt3__122__compressed_pair_elemINS_9allocatorIcEELi1ELb1EEC2B8ue170006ENS_18__default_init_tagE, symObjAddr: 0xBE0, symBinAddr: 0x1000018F8, symSize: 0x2C }
  - { offsetInCU: 0x95FA, offset: 0x95FA, size: 0x8, addend: 0x0, symName: __ZNSt3__19allocatorIcEC2B8ue170006Ev, symObjAddr: 0xC0C, symBinAddr: 0x100001924, symSize: 0x2C }
  - { offsetInCU: 0x9622, offset: 0x9622, size: 0x8, addend: 0x0, symName: __ZNSt3__116__non_trivial_ifILb1ENS_9allocatorIcEEEC2B8ue170006Ev, symObjAddr: 0xC38, symBinAddr: 0x100001950, symSize: 0x14 }
  - { offsetInCU: 0x964A, offset: 0x964A, size: 0x8, addend: 0x0, symName: __ZNSt3__117__compressed_pairINS_12basic_stringIcNS_11char_traitsIcEENS_9allocatorIcEEE5__repES5_E5firstB8ue170006Ev, symObjAddr: 0xC4C, symBinAddr: 0x100001964, symSize: 0x24 }
  - { offsetInCU: 0x966E, offset: 0x966E, size: 0x8, addend: 0x0, symName: __ZNSt3__122__compressed_pair_elemINS_12basic_stringIcNS_11char_traitsIcEENS_9allocatorIcEEE5__repELi0ELb0EE5__getB8ue170006Ev, symObjAddr: 0xC70, symBinAddr: 0x100001988, symSize: 0x14 }
  - { offsetInCU: 0x9739, offset: 0x9739, size: 0x8, addend: 0x0, symName: __ZNKSt3__113basic_istreamIcNS_11char_traitsIcEEE6sentrycvbB8ue170006Ev, symObjAddr: 0xC84, symBinAddr: 0x10000199C, symSize: 0x1C }
  - { offsetInCU: 0x975D, offset: 0x975D, size: 0x8, addend: 0x0, symName: __ZNSt3__112basic_stringIcNS_11char_traitsIcEENS_9allocatorIcEEE5clearB8ue170006Ev, symObjAddr: 0xCA0, symBinAddr: 0x1000019B8, symSize: 0x78 }
  - { offsetInCU: 0x9784, offset: 0x9784, size: 0x8, addend: 0x0, symName: __ZNKSt3__18ios_base5widthB8ue170006Ev, symObjAddr: 0xD18, symBinAddr: 0x100001A30, symSize: 0x18 }
  - { offsetInCU: 0x97A9, offset: 0x97A9, size: 0x8, addend: 0x0, symName: __ZNKSt3__112basic_stringIcNS_11char_traitsIcEENS_9allocatorIcEEE8max_sizeB8ue170006Ev, symObjAddr: 0xD30, symBinAddr: 0x100001A48, symSize: 0xAC }
  - { offsetInCU: 0x97FA, offset: 0x97FA, size: 0x8, addend: 0x0, symName: __ZNSt3__114numeric_limitsIlE3maxB8ue170006Ev, symObjAddr: 0xDDC, symBinAddr: 0x100001AF4, symSize: 0x14 }
  - { offsetInCU: 0x980D, offset: 0x980D, size: 0x8, addend: 0x0, symName: __ZNKSt3__19basic_iosIcNS_11char_traitsIcEEE5rdbufB8ue170006Ev, symObjAddr: 0xE1C, symBinAddr: 0x100001B34, symSize: 0x24 }
  - { offsetInCU: 0x9833, offset: 0x9833, size: 0x8, addend: 0x0, symName: __ZNSt3__115basic_streambufIcNS_11char_traitsIcEEE5sgetcB8ue170006Ev, symObjAddr: 0xE40, symBinAddr: 0x100001B58, symSize: 0x70 }
  - { offsetInCU: 0x9858, offset: 0x9858, size: 0x8, addend: 0x0, symName: __ZNSt3__111char_traitsIcE11eq_int_typeB8ue170006Eii, symObjAddr: 0xEB0, symBinAddr: 0x100001BC8, symSize: 0x28 }
  - { offsetInCU: 0x988B, offset: 0x988B, size: 0x8, addend: 0x0, symName: __ZNSt3__111char_traitsIcE3eofB8ue170006Ev, symObjAddr: 0xED8, symBinAddr: 0x100001BF0, symSize: 0x8 }
  - { offsetInCU: 0x989F, offset: 0x989F, size: 0x8, addend: 0x0, symName: __ZNSt3__111char_traitsIcE12to_char_typeB8ue170006Ei, symObjAddr: 0xEE0, symBinAddr: 0x100001BF8, symSize: 0x18 }
  - { offsetInCU: 0x98EE, offset: 0x98EE, size: 0x8, addend: 0x0, symName: __ZNKSt3__15ctypeIcE2isB8ue170006Ejc, symObjAddr: 0xEF8, symBinAddr: 0x100001C10, symSize: 0x7C }
  - { offsetInCU: 0x9930, offset: 0x9930, size: 0x8, addend: 0x0, symName: __ZNSt3__115basic_streambufIcNS_11char_traitsIcEEE6sbumpcB8ue170006Ev, symObjAddr: 0xF74, symBinAddr: 0x100001C8C, symSize: 0x78 }
  - { offsetInCU: 0x9955, offset: 0x9955, size: 0x8, addend: 0x0, symName: __ZNSt3__18ios_base5widthB8ue170006El, symObjAddr: 0xFEC, symBinAddr: 0x100001D04, symSize: 0x2C }
  - { offsetInCU: 0x9998, offset: 0x9998, size: 0x8, addend: 0x0, symName: __ZNSt3__18ios_base18__setstate_nothrowB8ue170006Ej, symObjAddr: 0x1018, symBinAddr: 0x100001D30, symSize: 0x64 }
  - { offsetInCU: 0x99CB, offset: 0x99CB, size: 0x8, addend: 0x0, symName: __ZNKSt3__19basic_iosIcNS_11char_traitsIcEEE10exceptionsB8ue170006Ev, symObjAddr: 0x107C, symBinAddr: 0x100001D94, symSize: 0x24 }
  - { offsetInCU: 0x99EF, offset: 0x99EF, size: 0x8, addend: 0x0, symName: __ZNSt3__19basic_iosIcNS_11char_traitsIcEEE8setstateB8ue170006Ej, symObjAddr: 0x10A0, symBinAddr: 0x100001DB8, symSize: 0x2C }
  - { offsetInCU: 0x9A22, offset: 0x9A22, size: 0x8, addend: 0x0, symName: __ZNKSt3__112basic_stringIcNS_11char_traitsIcEENS_9allocatorIcEEE9__is_longB8ue170006Ev, symObjAddr: 0x10CC, symBinAddr: 0x100001DE4, symSize: 0x38 }
  - { offsetInCU: 0x9A47, offset: 0x9A47, size: 0x8, addend: 0x0, symName: __ZNSt3__111char_traitsIcE6assignB8ue170006ERcRKc, symObjAddr: 0x1104, symBinAddr: 0x100001E1C, symSize: 0x24 }
  - { offsetInCU: 0x9A77, offset: 0x9A77, size: 0x8, addend: 0x0, symName: __ZNSt3__112basic_stringIcNS_11char_traitsIcEENS_9allocatorIcEEE18__get_long_pointerB8ue170006Ev, symObjAddr: 0x1128, symBinAddr: 0x100001E40, symSize: 0x28 }
  - { offsetInCU: 0x9A9B, offset: 0x9A9B, size: 0x8, addend: 0x0, symName: __ZNSt3__112basic_stringIcNS_11char_traitsIcEENS_9allocatorIcEEE15__set_long_sizeB8ue170006Em, symObjAddr: 0x1150, symBinAddr: 0x100001E68, symSize: 0x38 }
  - { offsetInCU: 0x9ACE, offset: 0x9ACE, size: 0x8, addend: 0x0, symName: __ZNSt3__112basic_stringIcNS_11char_traitsIcEENS_9allocatorIcEEE19__get_short_pointerB8ue170006Ev, symObjAddr: 0x1188, symBinAddr: 0x100001EA0, symSize: 0x28 }
  - { offsetInCU: 0x9AF2, offset: 0x9AF2, size: 0x8, addend: 0x0, symName: __ZNSt3__112basic_stringIcNS_11char_traitsIcEENS_9allocatorIcEEE16__set_short_sizeB8ue170006Em, symObjAddr: 0x11B0, symBinAddr: 0x100001EC8, symSize: 0x78 }
  - { offsetInCU: 0x9B25, offset: 0x9B25, size: 0x8, addend: 0x0, symName: __ZNKSt3__117__compressed_pairINS_12basic_stringIcNS_11char_traitsIcEENS_9allocatorIcEEE5__repES5_E5firstB8ue170006Ev, symObjAddr: 0x1228, symBinAddr: 0x100001F40, symSize: 0x24 }
  - { offsetInCU: 0x9B49, offset: 0x9B49, size: 0x8, addend: 0x0, symName: __ZNKSt3__122__compressed_pair_elemINS_12basic_stringIcNS_11char_traitsIcEENS_9allocatorIcEEE5__repELi0ELb0EE5__getB8ue170006Ev, symObjAddr: 0x124C, symBinAddr: 0x100001F64, symSize: 0x14 }
  - { offsetInCU: 0x9B6E, offset: 0x9B6E, size: 0x8, addend: 0x0, symName: __ZNSt3__114pointer_traitsIPcE10pointer_toB8ue170006ERc, symObjAddr: 0x1260, symBinAddr: 0x100001F78, symSize: 0x14 }
  - { offsetInCU: 0x9B9B, offset: 0x9B9B, size: 0x8, addend: 0x0, symName: __ZNSt3__116allocator_traitsINS_9allocatorIcEEE8max_sizeB8ue170006IS2_vEEmRKS2_, symObjAddr: 0x1274, symBinAddr: 0x100001F8C, symSize: 0x24 }
  - { offsetInCU: 0x9BC8, offset: 0x9BC8, size: 0x8, addend: 0x0, symName: __ZNKSt3__112basic_stringIcNS_11char_traitsIcEENS_9allocatorIcEEE7__allocB8ue170006Ev, symObjAddr: 0x1298, symBinAddr: 0x100001FB0, symSize: 0x24 }
  - { offsetInCU: 0x9BED, offset: 0x9BED, size: 0x8, addend: 0x0, symName: __ZNSt3__114numeric_limitsImE3maxB8ue170006Ev, symObjAddr: 0x12BC, symBinAddr: 0x100001FD4, symSize: 0x14 }
  - { offsetInCU: 0x9C00, offset: 0x9C00, size: 0x8, addend: 0x0, symName: __ZNKSt3__19allocatorIcE8max_sizeB8ue170006Ev, symObjAddr: 0x12D0, symBinAddr: 0x100001FE8, symSize: 0x14 }
  - { offsetInCU: 0x9C24, offset: 0x9C24, size: 0x8, addend: 0x0, symName: __ZNKSt3__117__compressed_pairINS_12basic_stringIcNS_11char_traitsIcEENS_9allocatorIcEEE5__repES5_E6secondB8ue170006Ev, symObjAddr: 0x12E4, symBinAddr: 0x100001FFC, symSize: 0x24 }
  - { offsetInCU: 0x9C48, offset: 0x9C48, size: 0x8, addend: 0x0, symName: __ZNKSt3__122__compressed_pair_elemINS_9allocatorIcEELi1ELb1EE5__getB8ue170006Ev, symObjAddr: 0x1308, symBinAddr: 0x100002020, symSize: 0x14 }
  - { offsetInCU: 0x9C6D, offset: 0x9C6D, size: 0x8, addend: 0x0, symName: __ZNSt3__123__libcpp_numeric_limitsImLb1EE3maxB8ue170006Ev, symObjAddr: 0x131C, symBinAddr: 0x100002034, symSize: 0x8 }
  - { offsetInCU: 0x9C81, offset: 0x9C81, size: 0x8, addend: 0x0, symName: __ZNSt3__123__libcpp_numeric_limitsIlLb1EE3maxB8ue170006Ev, symObjAddr: 0x1324, symBinAddr: 0x10000203C, symSize: 0x8 }
  - { offsetInCU: 0x9C94, offset: 0x9C94, size: 0x8, addend: 0x0, symName: __ZNKSt3__18ios_base5rdbufB8ue170006Ev, symObjAddr: 0x132C, symBinAddr: 0x100002044, symSize: 0x18 }
  - { offsetInCU: 0x9CB9, offset: 0x9CB9, size: 0x8, addend: 0x0, symName: __ZNSt3__111char_traitsIcE11to_int_typeB8ue170006Ec, symObjAddr: 0x1344, symBinAddr: 0x10000205C, symSize: 0x14 }
  - { offsetInCU: 0x9CDC, offset: 0x9CDC, size: 0x8, addend: 0x0, symName: __Z7isasciii, symObjAddr: 0x1358, symBinAddr: 0x100002070, symSize: 0x24 }
  - { offsetInCU: 0x9D09, offset: 0x9D09, size: 0x8, addend: 0x0, symName: __ZNKSt3__18ios_base10exceptionsB8ue170006Ev, symObjAddr: 0x137C, symBinAddr: 0x100002094, symSize: 0x18 }
  - { offsetInCU: 0x9D2E, offset: 0x9D2E, size: 0x8, addend: 0x0, symName: __ZNSt3__18ios_base8setstateB8ue170006Ej, symObjAddr: 0x1394, symBinAddr: 0x1000020AC, symSize: 0x34 }
  - { offsetInCU: 0x9D63, offset: 0x9D63, size: 0x8, addend: 0x0, symName: __ZNKSt3__19basic_iosIcNS_11char_traitsIcEEE4failB8ue170006Ev, symObjAddr: 0x13C8, symBinAddr: 0x1000020E0, symSize: 0x28 }
  - { offsetInCU: 0x9D88, offset: 0x9D88, size: 0x8, addend: 0x0, symName: __ZNKSt3__18ios_base4failB8ue170006Ev, symObjAddr: 0x13F0, symBinAddr: 0x100002108, symSize: 0x28 }
  - { offsetInCU: 0x9DAE, offset: 0x9DAE, size: 0x8, addend: 0x0, symName: __ZNSt3__111char_traitsIcE6lengthB8ue170006EPKc, symObjAddr: 0x1418, symBinAddr: 0x100002130, symSize: 0x34 }
  - { offsetInCU: 0x9DD0, offset: 0x9DD0, size: 0x8, addend: 0x0, symName: __ZNKSt3__112basic_stringIcNS_11char_traitsIcEENS_9allocatorIcEEE4sizeB8ue170006Ev, symObjAddr: 0x144C, symBinAddr: 0x100002164, symSize: 0x54 }
  - { offsetInCU: 0x9DF4, offset: 0x9DF4, size: 0x8, addend: 0x0, symName: __ZNKSt3__112basic_stringIcNS_11char_traitsIcEENS_9allocatorIcEEE15__get_long_sizeB8ue170006Ev, symObjAddr: 0x14C4, symBinAddr: 0x1000021DC, symSize: 0x28 }
  - { offsetInCU: 0x9E18, offset: 0x9E18, size: 0x8, addend: 0x0, symName: __ZNKSt3__112basic_stringIcNS_11char_traitsIcEENS_9allocatorIcEEE16__get_short_sizeB8ue170006Ev, symObjAddr: 0x14EC, symBinAddr: 0x100002204, symSize: 0x34 }
  - { offsetInCU: 0x9E5A, offset: 0x9E5A, size: 0x8, addend: 0x0, symName: __ZNKSt3__113basic_ostreamIcNS_11char_traitsIcEEE6sentrycvbB8ue170006Ev, symObjAddr: 0x170C, symBinAddr: 0x100002424, symSize: 0x1C }
  - { offsetInCU: 0x9E7E, offset: 0x9E7E, size: 0x8, addend: 0x0, symName: __ZNSt3__119ostreambuf_iteratorIcNS_11char_traitsIcEEEC1B8ue170006ERNS_13basic_ostreamIcS2_EE, symObjAddr: 0x1968, symBinAddr: 0x100002680, symSize: 0x34 }
  - { offsetInCU: 0x9EB5, offset: 0x9EB5, size: 0x8, addend: 0x0, symName: __ZNKSt3__18ios_base5flagsB8ue170006Ev, symObjAddr: 0x199C, symBinAddr: 0x1000026B4, symSize: 0x18 }
  - { offsetInCU: 0x9EDA, offset: 0x9EDA, size: 0x8, addend: 0x0, symName: __ZNKSt3__19basic_iosIcNS_11char_traitsIcEEE4fillB8ue170006Ev, symObjAddr: 0x19B4, symBinAddr: 0x1000026CC, symSize: 0x64 }
  - { offsetInCU: 0x9F00, offset: 0x9F00, size: 0x8, addend: 0x0, symName: __ZNKSt3__119ostreambuf_iteratorIcNS_11char_traitsIcEEE6failedB8ue170006Ev, symObjAddr: 0x1A18, symBinAddr: 0x100002730, symSize: 0x24 }
  - { offsetInCU: 0x9F24, offset: 0x9F24, size: 0x8, addend: 0x0, symName: __ZNSt3__115basic_streambufIcNS_11char_traitsIcEEE5sputnB8ue170006EPKcl, symObjAddr: 0x1A3C, symBinAddr: 0x100002754, symSize: 0x3C }
  - { offsetInCU: 0x9F64, offset: 0x9F64, size: 0x8, addend: 0x0, symName: __ZNSt3__112basic_stringIcNS_11char_traitsIcEENS_9allocatorIcEEEC1B8ue170006Emc, symObjAddr: 0x1A78, symBinAddr: 0x100002790, symSize: 0x3C }
  - { offsetInCU: 0x9FAA, offset: 0x9FAA, size: 0x8, addend: 0x0, symName: __ZNKSt3__112basic_stringIcNS_11char_traitsIcEENS_9allocatorIcEEE4dataB8ue170006Ev, symObjAddr: 0x1AB4, symBinAddr: 0x1000027CC, symSize: 0x28 }
  - { offsetInCU: 0x9FCE, offset: 0x9FCE, size: 0x8, addend: 0x0, symName: __ZNSt3__112basic_stringIcNS_11char_traitsIcEENS_9allocatorIcEEEC2B8ue170006Emc, symObjAddr: 0x1ADC, symBinAddr: 0x1000027F4, symSize: 0x4C }
  - { offsetInCU: 0xA014, offset: 0xA014, size: 0x8, addend: 0x0, symName: __ZNKSt3__112basic_stringIcNS_11char_traitsIcEENS_9allocatorIcEEE13__get_pointerB8ue170006Ev, symObjAddr: 0x1B3C, symBinAddr: 0x100002854, symSize: 0x54 }
  - { offsetInCU: 0xA038, offset: 0xA038, size: 0x8, addend: 0x0, symName: __ZNKSt3__112basic_stringIcNS_11char_traitsIcEENS_9allocatorIcEEE18__get_long_pointerB8ue170006Ev, symObjAddr: 0x1B90, symBinAddr: 0x1000028A8, symSize: 0x28 }
  - { offsetInCU: 0xA05C, offset: 0xA05C, size: 0x8, addend: 0x0, symName: __ZNKSt3__112basic_stringIcNS_11char_traitsIcEENS_9allocatorIcEEE19__get_short_pointerB8ue170006Ev, symObjAddr: 0x1BB8, symBinAddr: 0x1000028D0, symSize: 0x28 }
  - { offsetInCU: 0xA081, offset: 0xA081, size: 0x8, addend: 0x0, symName: __ZNSt3__114pointer_traitsIPKcE10pointer_toB8ue170006ERS1_, symObjAddr: 0x1BE0, symBinAddr: 0x1000028F8, symSize: 0x14 }
  - { offsetInCU: 0xA0A3, offset: 0xA0A3, size: 0x8, addend: 0x0, symName: __ZNSt3__119ostreambuf_iteratorIcNS_11char_traitsIcEEEC2B8ue170006ERNS_13basic_ostreamIcS2_EE, symObjAddr: 0x1BF4, symBinAddr: 0x10000290C, symSize: 0x54 }
  - { offsetInCU: 0xA0D9, offset: 0xA0D9, size: 0x8, addend: 0x0, symName: __ZNKSt3__19basic_iosIcNS_11char_traitsIcEEE5widenB8ue170006Ec, symObjAddr: 0x1C48, symBinAddr: 0x100002960, symSize: 0x84 }
  - { offsetInCU: 0xA10E, offset: 0xA10E, size: 0x8, addend: 0x0, symName: __ZNKSt3__15ctypeIcE5widenB8ue170006Ec, symObjAddr: 0x1CCC, symBinAddr: 0x1000029E4, symSize: 0x38 }
  - { offsetInCU: 0xA142, offset: 0xA142, size: 0x8, addend: 0x0, symName: __ZNSt3__111char_traitsIcE2eqEcc, symObjAddr: 0x1D04, symBinAddr: 0x100002A1C, symSize: 0x28 }
  - { offsetInCU: 0x3DAB, offset: 0xE123, size: 0x8, addend: 0x0, symName: __ZNSt3__13minB8ue170006ImEERKT_S3_S3_, symObjAddr: 0x174, symBinAddr: 0x100002BB8, symSize: 0x2C }
  - { offsetInCU: 0x3DEE, offset: 0xE166, size: 0x8, addend: 0x0, symName: __ZNSt3__14copyB8ue170006INS_11__wrap_iterIPKcEENS1_IPcEEEET0_T_S8_S7_, symObjAddr: 0x214, symBinAddr: 0x100002C04, symSize: 0x60 }
  - { offsetInCU: 0x3E48, offset: 0xE1C0, size: 0x8, addend: 0x0, symName: __ZNSt3__1neB8ue170006IPcEEbRKNS_11__wrap_iterIT_EES6_, symObjAddr: 0x4C0, symBinAddr: 0x100002EB0, symSize: 0x34 }
  - { offsetInCU: 0x3E8B, offset: 0xE203, size: 0x8, addend: 0x0, symName: __ZNSt3__14fillB8ue170006INS_11__wrap_iterIPcEEiEEvT_S4_RKT0_, symObjAddr: 0x610, symBinAddr: 0x100003000, symSize: 0x44 }
  - { offsetInCU: 0x3EE2, offset: 0xE25A, size: 0x8, addend: 0x0, symName: __ZNSt3__1neB8ue170006IPKcEEbRKNS_11__wrap_iterIT_EES7_, symObjAddr: 0x774, symBinAddr: 0x100003164, symSize: 0x34 }
  - { offsetInCU: 0x3F25, offset: 0xE29D, size: 0x8, addend: 0x0, symName: __ZNSt3__1eqB8ue170006IPcEEbRKNS_11__wrap_iterIT_EES6_, symObjAddr: 0x7F8, symBinAddr: 0x1000031E8, symSize: 0x48 }
  - { offsetInCU: 0x3F68, offset: 0xE2E0, size: 0x8, addend: 0x0, symName: __ZNSt3__1eqB8ue170006IPKcEEbRKNS_11__wrap_iterIT_EES7_, symObjAddr: 0x858, symBinAddr: 0x100003248, symSize: 0x48 }
  - { offsetInCU: 0x3FAB, offset: 0xE323, size: 0x8, addend: 0x0, symName: __ZNSt3__122__make_exception_guardB8ue170006INS_6vectorIcNS_9allocatorIcEEE16__destroy_vectorEEENS_28__exception_guard_exceptionsIT_EES7_, symObjAddr: 0x9D0, symBinAddr: 0x1000033C0, symSize: 0x40 }
  - { offsetInCU: 0x3FE0, offset: 0xE358, size: 0x8, addend: 0x0, symName: __ZNSt3__119__allocate_at_leastB8ue170006INS_9allocatorIcEEEENS_19__allocation_resultINS_16allocator_traitsIT_E7pointerEEERS5_m, symObjAddr: 0xDC4, symBinAddr: 0x100003748, symSize: 0x40 }
  - { offsetInCU: 0x4023, offset: 0xE39B, size: 0x8, addend: 0x0, symName: __ZNSt3__120__throw_length_errorB8ue170006EPKc, symObjAddr: 0xFC0, symBinAddr: 0x1000038D0, symSize: 0x64 }
  - { offsetInCU: 0x404E, offset: 0xE3C6, size: 0x8, addend: 0x0, symName: __ZNSt3__117__libcpp_allocateB8ue170006Emm, symObjAddr: 0x1130, symBinAddr: 0x100003A40, symSize: 0x28 }
  - { offsetInCU: 0x408B, offset: 0xE403, size: 0x8, addend: 0x0, symName: __ZNSt3__121__libcpp_operator_newB8ue170006IJmEEEPvDpT_, symObjAddr: 0x1158, symBinAddr: 0x100003A68, symSize: 0x24 }
  - { offsetInCU: 0x40C6, offset: 0xE43E, size: 0x8, addend: 0x0, symName: __ZNSt3__112__to_addressB8ue170006IcEEPT_S2_, symObjAddr: 0x126C, symBinAddr: 0x100003B7C, symSize: 0x14 }
  - { offsetInCU: 0x40FB, offset: 0xE473, size: 0x8, addend: 0x0, symName: __ZNSt3__119__libcpp_deallocateB8ue170006EPvmm, symObjAddr: 0x1708, symBinAddr: 0x100004018, symSize: 0x30 }
  - { offsetInCU: 0x4144, offset: 0xE4BC, size: 0x8, addend: 0x0, symName: __ZNSt3__127__do_deallocate_handle_sizeB8ue170006IJEEEvPvmDpT_, symObjAddr: 0x1738, symBinAddr: 0x100004048, symSize: 0x28 }
  - { offsetInCU: 0x4184, offset: 0xE4FC, size: 0x8, addend: 0x0, symName: __ZNSt3__124__libcpp_operator_deleteB8ue170006IJPvEEEvDpT_, symObjAddr: 0x1760, symBinAddr: 0x100004070, symSize: 0x24 }
  - { offsetInCU: 0x41BC, offset: 0xE534, size: 0x8, addend: 0x0, symName: __ZNSt3__13minB8ue170006ImNS_6__lessIvvEEEERKT_S5_S5_T0_, symObjAddr: 0x1890, symBinAddr: 0x1000040D4, symSize: 0x54 }
  - { offsetInCU: 0x429B, offset: 0xE613, size: 0x8, addend: 0x0, symName: __ZNSt3__16__copyB8ue170006INS_17_ClassicAlgPolicyENS_11__wrap_iterIPKcEES5_NS2_IPcEEEENS_4pairIT0_T2_EES9_T1_SA_, symObjAddr: 0x1B00, symBinAddr: 0x10000428C, symSize: 0x5C }
  - { offsetInCU: 0x4307, offset: 0xE67F, size: 0x8, addend: 0x0, symName: __ZNSt3__123__dispatch_copy_or_moveB8ue170006INS_17_ClassicAlgPolicyENS_11__copy_loopIS1_EENS_14__copy_trivialENS_11__wrap_iterIPKcEES8_NS5_IPcEEEENS_4pairIT2_T4_EESC_T3_SD_, symObjAddr: 0x1B5C, symBinAddr: 0x1000042E8, symSize: 0x5C }
  - { offsetInCU: 0x4385, offset: 0xE6FD, size: 0x8, addend: 0x0, symName: __ZNSt3__121__unwrap_and_dispatchB8ue170006INS_10__overloadINS_11__copy_loopINS_17_ClassicAlgPolicyEEENS_14__copy_trivialEEENS_11__wrap_iterIPKcEESA_NS7_IPcEELi0EEENS_4pairIT0_T2_EESE_T1_SF_, symObjAddr: 0x1BB8, symBinAddr: 0x100004344, symSize: 0xDC }
  - { offsetInCU: 0x4415, offset: 0xE78D, size: 0x8, addend: 0x0, symName: __ZNSt3__114__unwrap_rangeB8ue170006INS_11__wrap_iterIPKcEES3_EENS_4pairIT0_S6_EET_S8_, symObjAddr: 0x1C94, symBinAddr: 0x100004420, symSize: 0x70 }
  - { offsetInCU: 0x457D, offset: 0xE8F5, size: 0x8, addend: 0x0, symName: __ZNSt3__113__unwrap_iterB8ue170006INS_11__wrap_iterIPcEENS_18__unwrap_iter_implIS3_Lb1EEELi0EEEDTclsrT0_8__unwrapclsr3stdE7declvalIT_EEEES7_, symObjAddr: 0x1D4C, symBinAddr: 0x1000044D8, symSize: 0x2C }
  - { offsetInCU: 0x45C2, offset: 0xE93A, size: 0x8, addend: 0x0, symName: __ZNSt3__19make_pairB8ue170006INS_11__wrap_iterIPKcEENS1_IPcEEEENS_4pairINS_18__unwrap_ref_decayIT_E4typeENS8_IT0_E4typeEEEOS9_OSC_, symObjAddr: 0x1D78, symBinAddr: 0x100004504, symSize: 0x38 }
  - { offsetInCU: 0x4611, offset: 0xE989, size: 0x8, addend: 0x0, symName: __ZNSt3__114__rewrap_rangeB8ue170006INS_11__wrap_iterIPKcEES3_EET_S5_T0_, symObjAddr: 0x1DB0, symBinAddr: 0x10000453C, symSize: 0x3C }
  - { offsetInCU: 0x465D, offset: 0xE9D5, size: 0x8, addend: 0x0, symName: __ZNSt3__113__rewrap_iterB8ue170006INS_11__wrap_iterIPcEES2_NS_18__unwrap_iter_implIS3_Lb1EEEEET_S6_T0_, symObjAddr: 0x1DEC, symBinAddr: 0x100004578, symSize: 0x4C }
  - { offsetInCU: 0x46B2, offset: 0xEA2A, size: 0x8, addend: 0x0, symName: __ZNSt3__19make_pairB8ue170006IPKcS2_EENS_4pairINS_18__unwrap_ref_decayIT_E4typeENS4_IT0_E4typeEEEOS5_OS8_, symObjAddr: 0x1E38, symBinAddr: 0x1000045C4, symSize: 0x38 }
  - { offsetInCU: 0x4701, offset: 0xEA79, size: 0x8, addend: 0x0, symName: __ZNSt3__113__unwrap_iterB8ue170006INS_11__wrap_iterIPKcEENS_18__unwrap_iter_implIS4_Lb1EEELi0EEEDTclsrT0_8__unwrapclsr3stdE7declvalIT_EEEES8_, symObjAddr: 0x1E70, symBinAddr: 0x1000045FC, symSize: 0x2C }
  - { offsetInCU: 0x486E, offset: 0xEBE6, size: 0x8, addend: 0x0, symName: __ZNSt3__112__to_addressB8ue170006INS_11__wrap_iterIPKcEEvEEu7__decayIDTclsr19__to_address_helperIT_EE6__callclsr3stdE7declvalIRKS5_EEEEES7_, symObjAddr: 0x1F34, symBinAddr: 0x1000046C0, symSize: 0x24 }
  - { offsetInCU: 0x490C, offset: 0xEC84, size: 0x8, addend: 0x0, symName: __ZNSt3__119__copy_trivial_implB8ue170006IKccEENS_4pairIPT_PT0_EES4_S4_S6_, symObjAddr: 0x1FC8, symBinAddr: 0x100004740, symSize: 0x78 }
  - { offsetInCU: 0x4974, offset: 0xECEC, size: 0x8, addend: 0x0, symName: __ZNSt3__119__constexpr_memmoveB8ue170006IcKcLi0EEEPT_S3_PT0_NS_15__element_countE, symObjAddr: 0x2040, symBinAddr: 0x1000047B8, symSize: 0x64 }
  - { offsetInCU: 0x49E3, offset: 0xED5B, size: 0x8, addend: 0x0, symName: __ZNSt3__19make_pairB8ue170006IRPKcPcEENS_4pairINS_18__unwrap_ref_decayIT_E4typeENS6_IT0_E4typeEEEOS7_OSA_, symObjAddr: 0x20A4, symBinAddr: 0x10000481C, symSize: 0x38 }
  - { offsetInCU: 0x4A85, offset: 0xEDFD, size: 0x8, addend: 0x0, symName: __ZNSt3__112__to_addressB8ue170006INS_11__wrap_iterIPcEEvEEu7__decayIDTclsr19__to_address_helperIT_EE6__callclsr3stdE7declvalIRKS4_EEEEES6_, symObjAddr: 0x2174, symBinAddr: 0x1000048EC, symSize: 0x24 }
  - { offsetInCU: 0x4C36, offset: 0xEFAE, size: 0x8, addend: 0x0, symName: __ZNSt3__113__rewrap_iterB8ue170006INS_11__wrap_iterIPKcEES3_NS_18__unwrap_iter_implIS4_Lb1EEEEET_S7_T0_, symObjAddr: 0x2264, symBinAddr: 0x1000049DC, symSize: 0x4C }
  - { offsetInCU: 0x4C8B, offset: 0xF003, size: 0x8, addend: 0x0, symName: __ZNSt3__16__fillB8ue170006INS_11__wrap_iterIPcEEiEEvT_S4_RKT0_NS_26random_access_iterator_tagE, symObjAddr: 0x23BC, symBinAddr: 0x100004B34, symSize: 0x50 }
  - { offsetInCU: 0x4CEC, offset: 0xF064, size: 0x8, addend: 0x0, symName: __ZNSt3__16fill_nB8ue170006INS_11__wrap_iterIPcEEliEET_S4_T0_RKT1_, symObjAddr: 0x240C, symBinAddr: 0x100004B84, symSize: 0x4C }
  - { offsetInCU: 0x4D4F, offset: 0xF0C7, size: 0x8, addend: 0x0, symName: __ZNSt3__1miB8ue170006IPcS1_EEDTmicldtfp_4baseEcldtfp0_4baseEERKNS_11__wrap_iterIT_EERKNS3_IT0_EE, symObjAddr: 0x2458, symBinAddr: 0x100004BD0, symSize: 0x40 }
  - { offsetInCU: 0x4D9B, offset: 0xF113, size: 0x8, addend: 0x0, symName: __ZNSt3__18__fill_nB8ue170006INS_11__wrap_iterIPcEEliEET_S4_T0_RKT1_, symObjAddr: 0x2498, symBinAddr: 0x100004C10, symSize: 0x80 }
  - { offsetInCU: 0x4DFE, offset: 0xF176, size: 0x8, addend: 0x0, symName: __ZNSt3__121__convert_to_integralB8ue170006El, symObjAddr: 0x2518, symBinAddr: 0x100004C90, symSize: 0x14 }
  - { offsetInCU: 0x504F, offset: 0xF3C7, size: 0x8, addend: 0x0, symName: __ZSt28__throw_bad_array_new_lengthB8ue170006v, symObjAddr: 0x10FC, symBinAddr: 0x100003A0C, symSize: 0x34 }
  - { offsetInCU: 0x7128, offset: 0x114A0, size: 0x8, addend: 0x0, symName: __ZN9FileBlockC2EiRKNSt3__112basic_stringIcNS0_11char_traitsIcEENS0_9allocatorIcEEEE, symObjAddr: 0x0, symBinAddr: 0x100002A44, symSize: 0x138 }
  - { offsetInCU: 0x7183, offset: 0x114FB, size: 0x8, addend: 0x0, symName: __ZNSt3__16vectorIcNS_9allocatorIcEEEC1EmRKc, symObjAddr: 0x138, symBinAddr: 0x100002B7C, symSize: 0x3C }
  - { offsetInCU: 0x71CC, offset: 0x11544, size: 0x8, addend: 0x0, symName: __ZNKSt3__16vectorIcNS_9allocatorIcEEE4sizeB8ue170006Ev, symObjAddr: 0x1F4, symBinAddr: 0x100002BE4, symSize: 0x20 }
  - { offsetInCU: 0x71F0, offset: 0x11568, size: 0x8, addend: 0x0, symName: __ZNKSt3__112basic_stringIcNS_11char_traitsIcEENS_9allocatorIcEEE5beginB8ue170006Ev, symObjAddr: 0x274, symBinAddr: 0x100002C64, symSize: 0x4C }
  - { offsetInCU: 0x7214, offset: 0x1158C, size: 0x8, addend: 0x0, symName: __ZNKSt3__111__wrap_iterIPKcEplB8ue170006El, symObjAddr: 0x2C0, symBinAddr: 0x100002CB0, symSize: 0x3C }
  - { offsetInCU: 0x7254, offset: 0x115CC, size: 0x8, addend: 0x0, symName: __ZNSt3__16vectorIcNS_9allocatorIcEEE5beginB8ue170006Ev, symObjAddr: 0x2FC, symBinAddr: 0x100002CEC, symSize: 0x30 }
  - { offsetInCU: 0x727A, offset: 0x115F2, size: 0x8, addend: 0x0, symName: __ZN9FileBlock17calculateChecksumEv, symObjAddr: 0x32C, symBinAddr: 0x100002D1C, symSize: 0xA0 }
  - { offsetInCU: 0x7300, offset: 0x11678, size: 0x8, addend: 0x0, symName: __ZNSt3__16vectorIcNS_9allocatorIcEEED1B8ue170006Ev, symObjAddr: 0x3CC, symBinAddr: 0x100002DBC, symSize: 0x2C }
  - { offsetInCU: 0x7328, offset: 0x116A0, size: 0x8, addend: 0x0, symName: __ZN9FileBlockC1EiRKNSt3__112basic_stringIcNS0_11char_traitsIcEENS0_9allocatorIcEEEE, symObjAddr: 0x3F8, symBinAddr: 0x100002DE8, symSize: 0x3C }
  - { offsetInCU: 0x736F, offset: 0x116E7, size: 0x8, addend: 0x0, symName: __ZN9FileBlockD2Ev, symObjAddr: 0x434, symBinAddr: 0x100002E24, symSize: 0x30 }
  - { offsetInCU: 0x739A, offset: 0x11712, size: 0x8, addend: 0x0, symName: __ZN9FileBlockD1Ev, symObjAddr: 0x464, symBinAddr: 0x100002E54, symSize: 0x2C }
  - { offsetInCU: 0x73C5, offset: 0x1173D, size: 0x8, addend: 0x0, symName: __ZNSt3__16vectorIcNS_9allocatorIcEEE3endB8ue170006Ev, symObjAddr: 0x490, symBinAddr: 0x100002E80, symSize: 0x30 }
  - { offsetInCU: 0x73EB, offset: 0x11763, size: 0x8, addend: 0x0, symName: __ZNKSt3__111__wrap_iterIPcEdeB8ue170006Ev, symObjAddr: 0x4F4, symBinAddr: 0x100002EE4, symSize: 0x18 }
  - { offsetInCU: 0x740F, offset: 0x11787, size: 0x8, addend: 0x0, symName: __ZNSt3__111__wrap_iterIPcEppB8ue170006Ev, symObjAddr: 0x50C, symBinAddr: 0x100002EFC, symSize: 0x20 }
  - { offsetInCU: 0x7433, offset: 0x117AB, size: 0x8, addend: 0x0, symName: __ZN9FileBlock11corruptDataERKNSt3__112basic_stringIcNS0_11char_traitsIcEENS0_9allocatorIcEEEE, symObjAddr: 0x52C, symBinAddr: 0x100002F1C, symSize: 0xE4 }
  - { offsetInCU: 0x7476, offset: 0x117EE, size: 0x8, addend: 0x0, symName: __ZNK9FileBlock12validateDataEv, symObjAddr: 0x654, symBinAddr: 0x100003044, symSize: 0xC0 }
  - { offsetInCU: 0x74FC, offset: 0x11874, size: 0x8, addend: 0x0, symName: __ZNKSt3__16vectorIcNS_9allocatorIcEEE5beginB8ue170006Ev, symObjAddr: 0x714, symBinAddr: 0x100003104, symSize: 0x30 }
  - { offsetInCU: 0x7522, offset: 0x1189A, size: 0x8, addend: 0x0, symName: __ZNKSt3__16vectorIcNS_9allocatorIcEEE3endB8ue170006Ev, symObjAddr: 0x744, symBinAddr: 0x100003134, symSize: 0x30 }
  - { offsetInCU: 0x7548, offset: 0x118C0, size: 0x8, addend: 0x0, symName: __ZNKSt3__111__wrap_iterIPKcEdeB8ue170006Ev, symObjAddr: 0x7A8, symBinAddr: 0x100003198, symSize: 0x18 }
  - { offsetInCU: 0x756C, offset: 0x118E4, size: 0x8, addend: 0x0, symName: __ZNSt3__111__wrap_iterIPKcEppB8ue170006Ev, symObjAddr: 0x7C0, symBinAddr: 0x1000031B0, symSize: 0x20 }
  - { offsetInCU: 0x7590, offset: 0x11908, size: 0x8, addend: 0x0, symName: __ZN9FileBlock5getIDEv, symObjAddr: 0x7E0, symBinAddr: 0x1000031D0, symSize: 0x18 }
  - { offsetInCU: 0x75B7, offset: 0x1192F, size: 0x8, addend: 0x0, symName: __ZNKSt3__111__wrap_iterIPcE4baseB8ue170006Ev, symObjAddr: 0x840, symBinAddr: 0x100003230, symSize: 0x18 }
  - { offsetInCU: 0x75DB, offset: 0x11953, size: 0x8, addend: 0x0, symName: __ZNKSt3__111__wrap_iterIPKcE4baseB8ue170006Ev, symObjAddr: 0x8A0, symBinAddr: 0x100003290, symSize: 0x18 }
  - { offsetInCU: 0x75FF, offset: 0x11977, size: 0x8, addend: 0x0, symName: __ZNSt3__16vectorIcNS_9allocatorIcEEEC2EmRKc, symObjAddr: 0x8B8, symBinAddr: 0x1000032A8, symSize: 0xDC }
  - { offsetInCU: 0x7667, offset: 0x119DF, size: 0x8, addend: 0x0, symName: __ZNSt3__117__compressed_pairIPcNS_9allocatorIcEEEC1B8ue170006IDnNS_18__default_init_tagEEEOT_OT0_, symObjAddr: 0x994, symBinAddr: 0x100003384, symSize: 0x3C }
  - { offsetInCU: 0x76BD, offset: 0x11A35, size: 0x8, addend: 0x0, symName: __ZNSt3__16vectorIcNS_9allocatorIcEEE16__destroy_vectorC1B8ue170006ERS3_, symObjAddr: 0xA10, symBinAddr: 0x100003400, symSize: 0x34 }
  - { offsetInCU: 0x76F4, offset: 0x11A6C, size: 0x8, addend: 0x0, symName: __ZNSt3__16vectorIcNS_9allocatorIcEEE11__vallocateB8ue170006Em, symObjAddr: 0xA44, symBinAddr: 0x100003434, symSize: 0xAC }
  - { offsetInCU: 0x7736, offset: 0x11AAE, size: 0x8, addend: 0x0, symName: __ZNSt3__16vectorIcNS_9allocatorIcEEE18__construct_at_endEmRKc, symObjAddr: 0xAF0, symBinAddr: 0x1000034E0, symSize: 0xD0 }
  - { offsetInCU: 0x77B5, offset: 0x11B2D, size: 0x8, addend: 0x0, symName: __ZNSt3__128__exception_guard_exceptionsINS_6vectorIcNS_9allocatorIcEEE16__destroy_vectorEE10__completeB8ue170006Ev, symObjAddr: 0xBC0, symBinAddr: 0x1000035B0, symSize: 0x1C }
  - { offsetInCU: 0x77D9, offset: 0x11B51, size: 0x8, addend: 0x0, symName: __ZNSt3__128__exception_guard_exceptionsINS_6vectorIcNS_9allocatorIcEEE16__destroy_vectorEED1B8ue170006Ev, symObjAddr: 0xBDC, symBinAddr: 0x1000035CC, symSize: 0x2C }
  - { offsetInCU: 0x7801, offset: 0x11B79, size: 0x8, addend: 0x0, symName: __ZNSt3__117__compressed_pairIPcNS_9allocatorIcEEEC2B8ue170006IDnNS_18__default_init_tagEEEOT_OT0_, symObjAddr: 0xC08, symBinAddr: 0x1000035F8, symSize: 0x40 }
  - { offsetInCU: 0x7857, offset: 0x11BCF, size: 0x8, addend: 0x0, symName: __ZNSt3__122__compressed_pair_elemIPcLi0ELb0EEC2B8ue170006IDnvEEOT_, symObjAddr: 0xC48, symBinAddr: 0x100003638, symSize: 0x1C }
  - { offsetInCU: 0x7897, offset: 0x11C0F, size: 0x8, addend: 0x0, symName: __ZNSt3__128__exception_guard_exceptionsINS_6vectorIcNS_9allocatorIcEEE16__destroy_vectorEEC1B8ue170006ES5_, symObjAddr: 0xCD0, symBinAddr: 0x100003654, symSize: 0x34 }
  - { offsetInCU: 0x78CD, offset: 0x11C45, size: 0x8, addend: 0x0, symName: __ZNSt3__128__exception_guard_exceptionsINS_6vectorIcNS_9allocatorIcEEE16__destroy_vectorEEC2B8ue170006ES5_, symObjAddr: 0xD04, symBinAddr: 0x100003688, symSize: 0x24 }
  - { offsetInCU: 0x7903, offset: 0x11C7B, size: 0x8, addend: 0x0, symName: __ZNSt3__16vectorIcNS_9allocatorIcEEE16__destroy_vectorC2B8ue170006ERS3_, symObjAddr: 0xD28, symBinAddr: 0x1000036AC, symSize: 0x20 }
  - { offsetInCU: 0x793A, offset: 0x11CB2, size: 0x8, addend: 0x0, symName: __ZNKSt3__16vectorIcNS_9allocatorIcEEE8max_sizeEv, symObjAddr: 0xD48, symBinAddr: 0x1000036CC, symSize: 0x60 }
  - { offsetInCU: 0x7960, offset: 0x11CD8, size: 0x8, addend: 0x0, symName: __ZNKSt3__16vectorIcNS_9allocatorIcEEE20__throw_length_errorB8ue170006Ev, symObjAddr: 0xDA8, symBinAddr: 0x10000372C, symSize: 0x1C }
  - { offsetInCU: 0x7984, offset: 0x11CFC, size: 0x8, addend: 0x0, symName: __ZNSt3__16vectorIcNS_9allocatorIcEEE7__allocB8ue170006Ev, symObjAddr: 0xE04, symBinAddr: 0x100003788, symSize: 0x28 }
  - { offsetInCU: 0x79A8, offset: 0x11D20, size: 0x8, addend: 0x0, symName: __ZNSt3__16vectorIcNS_9allocatorIcEEE9__end_capB8ue170006Ev, symObjAddr: 0xE2C, symBinAddr: 0x1000037B0, symSize: 0x28 }
  - { offsetInCU: 0x79CC, offset: 0x11D44, size: 0x8, addend: 0x0, symName: __ZNKSt3__16vectorIcNS_9allocatorIcEEE14__annotate_newB8ue170006Em, symObjAddr: 0xE54, symBinAddr: 0x1000037D8, symSize: 0xAC }
  - { offsetInCU: 0x7A09, offset: 0x11D81, size: 0x8, addend: 0x0, symName: __ZNKSt3__16vectorIcNS_9allocatorIcEEE7__allocB8ue170006Ev, symObjAddr: 0xF24, symBinAddr: 0x100003884, symSize: 0x28 }
  - { offsetInCU: 0x7A2D, offset: 0x11DA5, size: 0x8, addend: 0x0, symName: __ZNKSt3__117__compressed_pairIPcNS_9allocatorIcEEE6secondB8ue170006Ev, symObjAddr: 0xF80, symBinAddr: 0x1000038AC, symSize: 0x24 }
  - { offsetInCU: 0x7A51, offset: 0x11DC9, size: 0x8, addend: 0x0, symName: __ZNSt12length_errorC1B8ue170006EPKc, symObjAddr: 0x1024, symBinAddr: 0x100003934, symSize: 0x34 }
  - { offsetInCU: 0x7A87, offset: 0x11DFF, size: 0x8, addend: 0x0, symName: __ZNSt12length_errorC2B8ue170006EPKc, symObjAddr: 0x1058, symBinAddr: 0x100003968, symSize: 0x4C }
  - { offsetInCU: 0x7ABD, offset: 0x11E35, size: 0x8, addend: 0x0, symName: __ZNSt3__19allocatorIcE8allocateB8ue170006Em, symObjAddr: 0x10A4, symBinAddr: 0x1000039B4, symSize: 0x58 }
  - { offsetInCU: 0x7AEF, offset: 0x11E67, size: 0x8, addend: 0x0, symName: __ZNSt3__117__compressed_pairIPcNS_9allocatorIcEEE6secondB8ue170006Ev, symObjAddr: 0x117C, symBinAddr: 0x100003A8C, symSize: 0x24 }
  - { offsetInCU: 0x7B13, offset: 0x11E8B, size: 0x8, addend: 0x0, symName: __ZNSt3__122__compressed_pair_elemINS_9allocatorIcEELi1ELb1EE5__getB8ue170006Ev, symObjAddr: 0x11A0, symBinAddr: 0x100003AB0, symSize: 0x14 }
  - { offsetInCU: 0x7B37, offset: 0x11EAF, size: 0x8, addend: 0x0, symName: __ZNSt3__117__compressed_pairIPcNS_9allocatorIcEEE5firstB8ue170006Ev, symObjAddr: 0x11B4, symBinAddr: 0x100003AC4, symSize: 0x24 }
  - { offsetInCU: 0x7B5B, offset: 0x11ED3, size: 0x8, addend: 0x0, symName: __ZNSt3__122__compressed_pair_elemIPcLi0ELb0EE5__getB8ue170006Ev, symObjAddr: 0x11D8, symBinAddr: 0x100003AE8, symSize: 0x14 }
  - { offsetInCU: 0x7B7F, offset: 0x11EF7, size: 0x8, addend: 0x0, symName: __ZNKSt3__16vectorIcNS_9allocatorIcEEE31__annotate_contiguous_containerB8ue170006EPKvS5_S5_S5_, symObjAddr: 0x11EC, symBinAddr: 0x100003AFC, symSize: 0x20 }
  - { offsetInCU: 0x7BD3, offset: 0x11F4B, size: 0x8, addend: 0x0, symName: __ZNKSt3__16vectorIcNS_9allocatorIcEEE4dataB8ue170006Ev, symObjAddr: 0x120C, symBinAddr: 0x100003B1C, symSize: 0x28 }
  - { offsetInCU: 0x7BF7, offset: 0x11F6F, size: 0x8, addend: 0x0, symName: __ZNKSt3__16vectorIcNS_9allocatorIcEEE8capacityB8ue170006Ev, symObjAddr: 0x1234, symBinAddr: 0x100003B44, symSize: 0x38 }
  - { offsetInCU: 0x7C1B, offset: 0x11F93, size: 0x8, addend: 0x0, symName: __ZNKSt3__16vectorIcNS_9allocatorIcEEE9__end_capB8ue170006Ev, symObjAddr: 0x1280, symBinAddr: 0x100003B90, symSize: 0x28 }
  - { offsetInCU: 0x7C3F, offset: 0x11FB7, size: 0x8, addend: 0x0, symName: __ZNKSt3__117__compressed_pairIPcNS_9allocatorIcEEE5firstB8ue170006Ev, symObjAddr: 0x12A8, symBinAddr: 0x100003BB8, symSize: 0x24 }
  - { offsetInCU: 0x7C63, offset: 0x11FDB, size: 0x8, addend: 0x0, symName: __ZNKSt3__122__compressed_pair_elemIPcLi0ELb0EE5__getB8ue170006Ev, symObjAddr: 0x12CC, symBinAddr: 0x100003BDC, symSize: 0x14 }
  - { offsetInCU: 0x7CA0, offset: 0x12018, size: 0x8, addend: 0x0, symName: __ZNSt3__16vectorIcNS_9allocatorIcEEE21_ConstructTransactionC1B8ue170006ERS3_m, symObjAddr: 0x12E0, symBinAddr: 0x100003BF0, symSize: 0x3C }
  - { offsetInCU: 0x7CE6, offset: 0x1205E, size: 0x8, addend: 0x0, symName: __ZNSt3__116allocator_traitsINS_9allocatorIcEEE9constructB8ue170006IcJRKcEvEEvRS2_PT_DpOT0_, symObjAddr: 0x131C, symBinAddr: 0x100003C2C, symSize: 0x34 }
  - { offsetInCU: 0x7D3F, offset: 0x120B7, size: 0x8, addend: 0x0, symName: __ZNSt3__16vectorIcNS_9allocatorIcEEE21_ConstructTransactionD1B8ue170006Ev, symObjAddr: 0x1350, symBinAddr: 0x100003C60, symSize: 0x2C }
  - { offsetInCU: 0x7D67, offset: 0x120DF, size: 0x8, addend: 0x0, symName: __ZNSt3__16vectorIcNS_9allocatorIcEEE21_ConstructTransactionC2B8ue170006ERS3_m, symObjAddr: 0x137C, symBinAddr: 0x100003C8C, symSize: 0x44 }
  - { offsetInCU: 0x7DAD, offset: 0x12125, size: 0x8, addend: 0x0, symName: __ZNSt3__19allocatorIcE9constructB8ue170006IcJRKcEEEvPT_DpOT0_, symObjAddr: 0x13C0, symBinAddr: 0x100003CD0, symSize: 0x28 }
  - { offsetInCU: 0x7E03, offset: 0x1217B, size: 0x8, addend: 0x0, symName: __ZNSt3__16vectorIcNS_9allocatorIcEEE21_ConstructTransactionD2B8ue170006Ev, symObjAddr: 0x13E8, symBinAddr: 0x100003CF8, symSize: 0x20 }
  - { offsetInCU: 0x7E2B, offset: 0x121A3, size: 0x8, addend: 0x0, symName: __ZNSt3__128__exception_guard_exceptionsINS_6vectorIcNS_9allocatorIcEEE16__destroy_vectorEED2B8ue170006Ev, symObjAddr: 0x1408, symBinAddr: 0x100003D18, symSize: 0x50 }
  - { offsetInCU: 0x7E53, offset: 0x121CB, size: 0x8, addend: 0x0, symName: __ZNSt3__16vectorIcNS_9allocatorIcEEE16__destroy_vectorclB8ue170006Ev, symObjAddr: 0x1458, symBinAddr: 0x100003D68, symSize: 0x90 }
  - { offsetInCU: 0x7E77, offset: 0x121EF, size: 0x8, addend: 0x0, symName: __ZNSt3__16vectorIcNS_9allocatorIcEEE7__clearB8ue170006Ev, symObjAddr: 0x14E8, symBinAddr: 0x100003DF8, symSize: 0x28 }
  - { offsetInCU: 0x7E9B, offset: 0x12213, size: 0x8, addend: 0x0, symName: __ZNKSt3__16vectorIcNS_9allocatorIcEEE17__annotate_deleteB8ue170006Ev, symObjAddr: 0x1510, symBinAddr: 0x100003E20, symSize: 0xB8 }
  - { offsetInCU: 0x7EBF, offset: 0x12237, size: 0x8, addend: 0x0, symName: __ZNSt3__116allocator_traitsINS_9allocatorIcEEE10deallocateB8ue170006ERS2_Pcm, symObjAddr: 0x15C8, symBinAddr: 0x100003ED8, symSize: 0x34 }
  - { offsetInCU: 0x7F01, offset: 0x12279, size: 0x8, addend: 0x0, symName: __ZNSt3__16vectorIcNS_9allocatorIcEEE22__base_destruct_at_endB8ue170006EPc, symObjAddr: 0x15FC, symBinAddr: 0x100003F0C, symSize: 0x8C }
  - { offsetInCU: 0x7F43, offset: 0x122BB, size: 0x8, addend: 0x0, symName: __ZNSt3__116allocator_traitsINS_9allocatorIcEEE7destroyB8ue170006IcvEEvRS2_PT_, symObjAddr: 0x1688, symBinAddr: 0x100003F98, symSize: 0x2C }
  - { offsetInCU: 0x7F80, offset: 0x122F8, size: 0x8, addend: 0x0, symName: __ZNSt3__19allocatorIcE7destroyB8ue170006EPc, symObjAddr: 0x16B4, symBinAddr: 0x100003FC4, symSize: 0x14 }
  - { offsetInCU: 0x7FB2, offset: 0x1232A, size: 0x8, addend: 0x0, symName: __ZNSt3__19allocatorIcE10deallocateB8ue170006EPcm, symObjAddr: 0x16C8, symBinAddr: 0x100003FD8, symSize: 0x40 }
  - { offsetInCU: 0x7FF2, offset: 0x1236A, size: 0x8, addend: 0x0, symName: __ZNSt3__16vectorIcNS_9allocatorIcEEED2B8ue170006Ev, symObjAddr: 0x1784, symBinAddr: 0x100004094, symSize: 0x40 }
  - { offsetInCU: 0x802E, offset: 0x123A6, size: 0x8, addend: 0x0, symName: __ZNKSt3__16__lessIvvEclB8ue170006ImmEEbRKT_RKT0_, symObjAddr: 0x18E4, symBinAddr: 0x100004128, symSize: 0x34 }
  - { offsetInCU: 0x8080, offset: 0x123F8, size: 0x8, addend: 0x0, symName: __ZNKSt3__112basic_stringIcNS_11char_traitsIcEENS_9allocatorIcEEE21__make_const_iteratorB8ue170006EPKc, symObjAddr: 0x1918, symBinAddr: 0x10000415C, symSize: 0x30 }
  - { offsetInCU: 0x80B3, offset: 0x1242B, size: 0x8, addend: 0x0, symName: __ZNSt3__111__wrap_iterIPKcEC1B8ue170006ES2_, symObjAddr: 0x199C, symBinAddr: 0x10000418C, symSize: 0x34 }
  - { offsetInCU: 0x80E9, offset: 0x12461, size: 0x8, addend: 0x0, symName: __ZNSt3__111__wrap_iterIPKcEC2B8ue170006ES2_, symObjAddr: 0x19D0, symBinAddr: 0x1000041C0, symSize: 0x20 }
  - { offsetInCU: 0x811F, offset: 0x12497, size: 0x8, addend: 0x0, symName: __ZNSt3__111__wrap_iterIPKcEpLB8ue170006El, symObjAddr: 0x1A54, symBinAddr: 0x1000041E0, symSize: 0x28 }
  - { offsetInCU: 0x8151, offset: 0x124C9, size: 0x8, addend: 0x0, symName: __ZNSt3__16vectorIcNS_9allocatorIcEEE11__make_iterB8ue170006EPc, symObjAddr: 0x1A7C, symBinAddr: 0x100004208, symSize: 0x30 }
  - { offsetInCU: 0x8184, offset: 0x124FC, size: 0x8, addend: 0x0, symName: __ZNSt3__111__wrap_iterIPcEC1B8ue170006ES1_, symObjAddr: 0x1AAC, symBinAddr: 0x100004238, symSize: 0x34 }
  - { offsetInCU: 0x81BA, offset: 0x12532, size: 0x8, addend: 0x0, symName: __ZNSt3__111__wrap_iterIPcEC2B8ue170006ES1_, symObjAddr: 0x1AE0, symBinAddr: 0x10000426C, symSize: 0x20 }
  - { offsetInCU: 0x8213, offset: 0x1258B, size: 0x8, addend: 0x0, symName: __ZNKSt3__114__copy_trivialclB8ue170006IKccLi0EEENS_4pairIPT_PT0_EES5_S5_S7_, symObjAddr: 0x1D04, symBinAddr: 0x100004490, symSize: 0x48 }
  - { offsetInCU: 0x8298, offset: 0x12610, size: 0x8, addend: 0x0, symName: __ZNSt3__14pairIPKcS2_EC1B8ue170006IS2_S2_LPv0EEEOT_OT0_, symObjAddr: 0x1E9C, symBinAddr: 0x100004628, symSize: 0x3C }
  - { offsetInCU: 0x82F5, offset: 0x1266D, size: 0x8, addend: 0x0, symName: __ZNSt3__14pairIPKcS2_EC2B8ue170006IS2_S2_LPv0EEEOT_OT0_, symObjAddr: 0x1ED8, symBinAddr: 0x100004664, symSize: 0x34 }
  - { offsetInCU: 0x8352, offset: 0x126CA, size: 0x8, addend: 0x0, symName: __ZNSt3__118__unwrap_iter_implINS_11__wrap_iterIPKcEELb1EE8__unwrapB8ue170006ES4_, symObjAddr: 0x1F0C, symBinAddr: 0x100004698, symSize: 0x28 }
  - { offsetInCU: 0x837F, offset: 0x126F7, size: 0x8, addend: 0x0, symName: __ZNSt3__119__to_address_helperINS_11__wrap_iterIPKcEEvE6__callB8ue170006ERKS4_, symObjAddr: 0x1F58, symBinAddr: 0x1000046E4, symSize: 0x30 }
  - { offsetInCU: 0x83A2, offset: 0x1271A, size: 0x8, addend: 0x0, symName: __ZNSt3__114pointer_traitsINS_11__wrap_iterIPKcEEE10to_addressB8ue170006ES4_, symObjAddr: 0x1F88, symBinAddr: 0x100004714, symSize: 0x2C }
  - { offsetInCU: 0x83CF, offset: 0x12747, size: 0x8, addend: 0x0, symName: __ZNSt3__14pairIPKcPcEC1B8ue170006IRS2_S3_LPv0EEEOT_OT0_, symObjAddr: 0x20DC, symBinAddr: 0x100004854, symSize: 0x3C }
  - { offsetInCU: 0x842C, offset: 0x127A4, size: 0x8, addend: 0x0, symName: __ZNSt3__14pairIPKcPcEC2B8ue170006IRS2_S3_LPv0EEEOT_OT0_, symObjAddr: 0x2118, symBinAddr: 0x100004890, symSize: 0x34 }
  - { offsetInCU: 0x8489, offset: 0x12801, size: 0x8, addend: 0x0, symName: __ZNSt3__118__unwrap_iter_implINS_11__wrap_iterIPcEELb1EE8__unwrapB8ue170006ES3_, symObjAddr: 0x214C, symBinAddr: 0x1000048C4, symSize: 0x28 }
  - { offsetInCU: 0x84B6, offset: 0x1282E, size: 0x8, addend: 0x0, symName: __ZNSt3__119__to_address_helperINS_11__wrap_iterIPcEEvE6__callB8ue170006ERKS3_, symObjAddr: 0x2198, symBinAddr: 0x100004910, symSize: 0x30 }
  - { offsetInCU: 0x84D9, offset: 0x12851, size: 0x8, addend: 0x0, symName: __ZNSt3__114pointer_traitsINS_11__wrap_iterIPcEEE10to_addressB8ue170006ES3_, symObjAddr: 0x21C8, symBinAddr: 0x100004940, symSize: 0x2C }
  - { offsetInCU: 0x851F, offset: 0x12897, size: 0x8, addend: 0x0, symName: __ZNSt3__14pairINS_11__wrap_iterIPKcEENS1_IPcEEEC1B8ue170006IS4_S6_LPv0EEEOT_OT0_, symObjAddr: 0x21F4, symBinAddr: 0x10000496C, symSize: 0x3C }
  - { offsetInCU: 0x857C, offset: 0x128F4, size: 0x8, addend: 0x0, symName: __ZNSt3__14pairINS_11__wrap_iterIPKcEENS1_IPcEEEC2B8ue170006IS4_S6_LPv0EEEOT_OT0_, symObjAddr: 0x2230, symBinAddr: 0x1000049A8, symSize: 0x34 }
  - { offsetInCU: 0x85D9, offset: 0x12951, size: 0x8, addend: 0x0, symName: __ZNSt3__118__unwrap_iter_implINS_11__wrap_iterIPKcEELb1EE8__rewrapB8ue170006ES4_S3_, symObjAddr: 0x22B0, symBinAddr: 0x100004A28, symSize: 0x54 }
  - { offsetInCU: 0x860A, offset: 0x12982, size: 0x8, addend: 0x0, symName: __ZNSt3__118__unwrap_iter_implINS_11__wrap_iterIPcEELb1EE8__rewrapB8ue170006ES3_S2_, symObjAddr: 0x2304, symBinAddr: 0x100004A7C, symSize: 0x54 }
  - { offsetInCU: 0x863B, offset: 0x129B3, size: 0x8, addend: 0x0, symName: __ZNKSt3__111__wrap_iterIPcEplB8ue170006El, symObjAddr: 0x2358, symBinAddr: 0x100004AD0, symSize: 0x3C }
  - { offsetInCU: 0x867B, offset: 0x129F3, size: 0x8, addend: 0x0, symName: __ZNSt3__111__wrap_iterIPcEpLB8ue170006El, symObjAddr: 0x2394, symBinAddr: 0x100004B0C, symSize: 0x28 }
  - { offsetInCU: 0x86AD, offset: 0x12A25, size: 0x8, addend: 0x0, symName: __ZNKSt3__16vectorIcNS_9allocatorIcEEE11__make_iterB8ue170006EPKc, symObjAddr: 0x252C, symBinAddr: 0x100004CA4, symSize: 0x30 }
  - { offsetInCU: 0x4B27, offset: 0x175ED, size: 0x8, addend: 0x0, symName: __ZNSt3__1neB8ue170006IPPvEEbRKNS_11__wrap_iterIT_EES7_, symObjAddr: 0x41C, symBinAddr: 0x1000050F0, symSize: 0x34 }
  - { offsetInCU: 0x4B6A, offset: 0x17630, size: 0x8, addend: 0x0, symName: __ZNSt3__1eqB8ue170006IPPvEEbRKNS_11__wrap_iterIT_EES7_, symObjAddr: 0x73C, symBinAddr: 0x100005410, symSize: 0x48 }
  - { offsetInCU: 0x4BAD, offset: 0x17673, size: 0x8, addend: 0x0, symName: __ZNSt3__112__to_addressB8ue170006IPvEEPT_S3_, symObjAddr: 0xC54, symBinAddr: 0x10000591C, symSize: 0x14 }
  - { offsetInCU: 0x4BE2, offset: 0x176A8, size: 0x8, addend: 0x0, symName: __ZNSt3__13maxB8ue170006ImEERKT_S3_S3_, symObjAddr: 0x1564, symBinAddr: 0x1000061B0, symSize: 0x2C }
  - { offsetInCU: 0x4C25, offset: 0x176EB, size: 0x8, addend: 0x0, symName: __ZNSt3__13maxB8ue170006ImNS_6__lessIvvEEEERKT_S5_S5_T0_, symObjAddr: 0x17DC, symBinAddr: 0x100006274, symSize: 0x54 }
  - { offsetInCU: 0x4C7F, offset: 0x17745, size: 0x8, addend: 0x0, symName: __ZNSt3__119__allocate_at_leastB8ue170006INS_9allocatorIPvEEEENS_19__allocation_resultINS_16allocator_traitsIT_E7pointerEEERS6_m, symObjAddr: 0x1940, symBinAddr: 0x1000063D8, symSize: 0x40 }
  - { offsetInCU: 0x4CC2, offset: 0x17788, size: 0x8, addend: 0x0, symName: __ZNSt3__142__uninitialized_allocator_move_if_noexceptB8ue170006INS_9allocatorIPvEENS_16reverse_iteratorIPS2_EES6_S2_vEET1_RT_T0_SA_S7_, symObjAddr: 0x1C40, symBinAddr: 0x100006658, symSize: 0x78 }
  - { offsetInCU: 0x4D40, offset: 0x17806, size: 0x8, addend: 0x0, symName: __ZNSt3__14swapB8ue170006IPPvEENS_9enable_ifIXaasr21is_move_constructibleIT_EE5valuesr18is_move_assignableIS4_EE5valueEvE4typeERS4_S7_, symObjAddr: 0x1D04, symBinAddr: 0x10000671C, symSize: 0x3C }
  - { offsetInCU: 0x4D91, offset: 0x17857, size: 0x8, addend: 0x0, symName: __ZNSt3__14moveB8ue170006INS_16reverse_iteratorIPPvEES4_EET0_T_S6_S5_, symObjAddr: 0x1DEC, symBinAddr: 0x100006804, symSize: 0x78 }
  - { offsetInCU: 0x4DEB, offset: 0x178B1, size: 0x8, addend: 0x0, symName: __ZNSt3__16__moveB8ue170006INS_17_ClassicAlgPolicyENS_16reverse_iteratorIPPvEES5_S5_EENS_4pairIT0_T2_EES7_T1_S8_, symObjAddr: 0x1E64, symBinAddr: 0x10000687C, symSize: 0x64 }
  - { offsetInCU: 0x4E57, offset: 0x1791D, size: 0x8, addend: 0x0, symName: __ZNSt3__123__dispatch_copy_or_moveB8ue170006INS_17_ClassicAlgPolicyENS_11__move_loopIS1_EENS_14__move_trivialENS_16reverse_iteratorIPPvEES8_S8_EENS_4pairIT2_T4_EESA_T3_SB_, symObjAddr: 0x1EC8, symBinAddr: 0x1000068E0, symSize: 0x64 }
  - { offsetInCU: 0x4ED5, offset: 0x1799B, size: 0x8, addend: 0x0, symName: __ZNSt3__121__unwrap_and_dispatchB8ue170006INS_10__overloadINS_11__move_loopINS_17_ClassicAlgPolicyEEENS_14__move_trivialEEENS_16reverse_iteratorIPPvEESA_SA_Li0EEENS_4pairIT0_T2_EESC_T1_SD_, symObjAddr: 0x1F2C, symBinAddr: 0x100006944, symSize: 0x12C }
  - { offsetInCU: 0x4F66, offset: 0x17A2C, size: 0x8, addend: 0x0, symName: __ZNSt3__114__unwrap_rangeB8ue170006INS_16reverse_iteratorIPPvEES4_EENS_4pairIT0_S6_EET_S8_, symObjAddr: 0x2058, symBinAddr: 0x100006A70, symSize: 0x84 }
  - { offsetInCU: 0x50D9, offset: 0x17B9F, size: 0x8, addend: 0x0, symName: __ZNSt3__113__unwrap_iterB8ue170006INS_16reverse_iteratorIPPvEENS_18__unwrap_iter_implIS4_Lb0EEELi0EEEDTclsrT0_8__unwrapclsr3stdE7declvalIT_EEEES8_, symObjAddr: 0x217C, symBinAddr: 0x100006B94, symSize: 0x44 }
  - { offsetInCU: 0x511E, offset: 0x17BE4, size: 0x8, addend: 0x0, symName: __ZNSt3__19make_pairB8ue170006INS_16reverse_iteratorIPPvEES4_EENS_4pairINS_18__unwrap_ref_decayIT_E4typeENS6_IT0_E4typeEEEOS7_OSA_, symObjAddr: 0x21C0, symBinAddr: 0x100006BD8, symSize: 0x38 }
  - { offsetInCU: 0x516D, offset: 0x17C33, size: 0x8, addend: 0x0, symName: __ZNSt3__114__rewrap_rangeB8ue170006INS_16reverse_iteratorIPPvEES4_EET_S5_T0_, symObjAddr: 0x21F8, symBinAddr: 0x100006C10, symSize: 0x5C }
  - { offsetInCU: 0x51B9, offset: 0x17C7F, size: 0x8, addend: 0x0, symName: __ZNSt3__113__rewrap_iterB8ue170006INS_16reverse_iteratorIPPvEES4_NS_18__unwrap_iter_implIS4_Lb0EEEEET_S7_T0_, symObjAddr: 0x2254, symBinAddr: 0x100006C6C, symSize: 0x74 }
  - { offsetInCU: 0x520E, offset: 0x17CD4, size: 0x8, addend: 0x0, symName: __ZNSt3__1neB8ue170006IPPvS2_EEbRKNS_16reverse_iteratorIT_EERKNS3_IT0_EE, symObjAddr: 0x22C8, symBinAddr: 0x100006CE0, symSize: 0x48 }
  - { offsetInCU: 0x57F6, offset: 0x182BC, size: 0x8, addend: 0x0, symName: __ZNSt3__16vectorIPvNS_9allocatorIS1_EEE26__swap_out_circular_bufferERNS_14__split_bufferIS1_RS3_EE, symObjAddr: 0x124C, symBinAddr: 0x100005E98, symSize: 0x110 }
  - { offsetInCU: 0x768D, offset: 0x1A153, size: 0x8, addend: 0x0, symName: __ZN9HashTableC2Eib, symObjAddr: 0x0, symBinAddr: 0x100004CD4, symSize: 0x154 }
  - { offsetInCU: 0x76E8, offset: 0x1A1AE, size: 0x8, addend: 0x0, symName: __ZNSt3__16vectorIPvNS_9allocatorIS1_EEEC1B8ue170006Ev, symObjAddr: 0x154, symBinAddr: 0x100004E28, symSize: 0x2C }
  - { offsetInCU: 0x7710, offset: 0x1A1D6, size: 0x8, addend: 0x0, symName: __ZNSt3__16vectorIPvNS_9allocatorIS1_EEE6resizeEmRKS1_, symObjAddr: 0x180, symBinAddr: 0x100004E54, symSize: 0x9C }
  - { offsetInCU: 0x7763, offset: 0x1A229, size: 0x8, addend: 0x0, symName: __ZNSt3__16vectorIPvNS_9allocatorIS1_EEEixB8ue170006Em, symObjAddr: 0x21C, symBinAddr: 0x100004EF0, symSize: 0x24 }
  - { offsetInCU: 0x7798, offset: 0x1A25E, size: 0x8, addend: 0x0, symName: __ZNSt3__16vectorIPvNS_9allocatorIS1_EEED1B8ue170006Ev, symObjAddr: 0x240, symBinAddr: 0x100004F14, symSize: 0x2C }
  - { offsetInCU: 0x77C0, offset: 0x1A286, size: 0x8, addend: 0x0, symName: __ZN9HashTableC1Eib, symObjAddr: 0x26C, symBinAddr: 0x100004F40, symSize: 0x48 }
  - { offsetInCU: 0x7807, offset: 0x1A2CD, size: 0x8, addend: 0x0, symName: __ZN9HashTableD2Ev, symObjAddr: 0x2B4, symBinAddr: 0x100004F88, symSize: 0x108 }
  - { offsetInCU: 0x7883, offset: 0x1A349, size: 0x8, addend: 0x0, symName: __ZNSt3__16vectorIPvNS_9allocatorIS1_EEE5beginB8ue170006Ev, symObjAddr: 0x3BC, symBinAddr: 0x100005090, symSize: 0x30 }
  - { offsetInCU: 0x78A9, offset: 0x1A36F, size: 0x8, addend: 0x0, symName: __ZNSt3__16vectorIPvNS_9allocatorIS1_EEE3endB8ue170006Ev, symObjAddr: 0x3EC, symBinAddr: 0x1000050C0, symSize: 0x30 }
  - { offsetInCU: 0x78CF, offset: 0x1A395, size: 0x8, addend: 0x0, symName: __ZNKSt3__111__wrap_iterIPPvEdeB8ue170006Ev, symObjAddr: 0x450, symBinAddr: 0x100005124, symSize: 0x18 }
  - { offsetInCU: 0x78F3, offset: 0x1A3B9, size: 0x8, addend: 0x0, symName: __ZNSt3__111__wrap_iterIPPvEppB8ue170006Ev, symObjAddr: 0x468, symBinAddr: 0x10000513C, symSize: 0x20 }
  - { offsetInCU: 0x7917, offset: 0x1A3DD, size: 0x8, addend: 0x0, symName: __ZN9HashTableD1Ev, symObjAddr: 0x488, symBinAddr: 0x10000515C, symSize: 0x2C }
  - { offsetInCU: 0x7942, offset: 0x1A408, size: 0x8, addend: 0x0, symName: __ZNK9HashTable11primaryHashEi, symObjAddr: 0x4B4, symBinAddr: 0x100005188, symSize: 0x2C }
  - { offsetInCU: 0x7977, offset: 0x1A43D, size: 0x8, addend: 0x0, symName: __ZNK9HashTable13secondaryHashEi, symObjAddr: 0x4E0, symBinAddr: 0x1000051B4, symSize: 0x7C }
  - { offsetInCU: 0x79BA, offset: 0x1A480, size: 0x8, addend: 0x0, symName: __ZN9HashTable5storeEiRKNSt3__112basic_stringIcNS0_11char_traitsIcEENS0_9allocatorIcEEEE, symObjAddr: 0x55C, symBinAddr: 0x100005230, symSize: 0x1E0 }
  - { offsetInCU: 0x7A63, offset: 0x1A529, size: 0x8, addend: 0x0, symName: __ZNKSt3__111__wrap_iterIPPvE4baseB8ue170006Ev, symObjAddr: 0x784, symBinAddr: 0x100005458, symSize: 0x18 }
  - { offsetInCU: 0x7A87, offset: 0x1A54D, size: 0x8, addend: 0x0, symName: __ZNSt3__16vectorIPvNS_9allocatorIS1_EEEC2B8ue170006Ev, symObjAddr: 0x79C, symBinAddr: 0x100005470, symSize: 0x4C }
  - { offsetInCU: 0x7AB9, offset: 0x1A57F, size: 0x8, addend: 0x0, symName: __ZNSt3__117__compressed_pairIPPvNS_9allocatorIS1_EEEC1B8ue170006IDnNS_18__default_init_tagEEEOT_OT0_, symObjAddr: 0x7E8, symBinAddr: 0x1000054BC, symSize: 0x3C }
  - { offsetInCU: 0x7B0F, offset: 0x1A5D5, size: 0x8, addend: 0x0, symName: __ZNSt3__117__compressed_pairIPPvNS_9allocatorIS1_EEEC2B8ue170006IDnNS_18__default_init_tagEEEOT_OT0_, symObjAddr: 0x830, symBinAddr: 0x1000054F8, symSize: 0x40 }
  - { offsetInCU: 0x7B65, offset: 0x1A62B, size: 0x8, addend: 0x0, symName: __ZNSt3__122__compressed_pair_elemIPPvLi0ELb0EEC2B8ue170006IDnvEEOT_, symObjAddr: 0x870, symBinAddr: 0x100005538, symSize: 0x1C }
  - { offsetInCU: 0x7BA5, offset: 0x1A66B, size: 0x8, addend: 0x0, symName: __ZNSt3__122__compressed_pair_elemINS_9allocatorIPvEELi1ELb1EEC2B8ue170006ENS_18__default_init_tagE, symObjAddr: 0x88C, symBinAddr: 0x100005554, symSize: 0x2C }
  - { offsetInCU: 0x7BD7, offset: 0x1A69D, size: 0x8, addend: 0x0, symName: __ZNSt3__19allocatorIPvEC2B8ue170006Ev, symObjAddr: 0x8B8, symBinAddr: 0x100005580, symSize: 0x2C }
  - { offsetInCU: 0x7BFF, offset: 0x1A6C5, size: 0x8, addend: 0x0, symName: __ZNSt3__116__non_trivial_ifILb1ENS_9allocatorIPvEEEC2B8ue170006Ev, symObjAddr: 0x8E4, symBinAddr: 0x1000055AC, symSize: 0x14 }
  - { offsetInCU: 0x7C27, offset: 0x1A6ED, size: 0x8, addend: 0x0, symName: __ZNSt3__16vectorIPvNS_9allocatorIS1_EEED2B8ue170006Ev, symObjAddr: 0x8F8, symBinAddr: 0x1000055C0, symSize: 0x44 }
  - { offsetInCU: 0x7C4F, offset: 0x1A715, size: 0x8, addend: 0x0, symName: __ZNSt3__16vectorIPvNS_9allocatorIS1_EEE16__destroy_vectorC1B8ue170006ERS4_, symObjAddr: 0x93C, symBinAddr: 0x100005604, symSize: 0x34 }
  - { offsetInCU: 0x7C86, offset: 0x1A74C, size: 0x8, addend: 0x0, symName: __ZNSt3__16vectorIPvNS_9allocatorIS1_EEE16__destroy_vectorclB8ue170006Ev, symObjAddr: 0x970, symBinAddr: 0x100005638, symSize: 0x90 }
  - { offsetInCU: 0x7CAA, offset: 0x1A770, size: 0x8, addend: 0x0, symName: __ZNSt3__16vectorIPvNS_9allocatorIS1_EEE16__destroy_vectorC2B8ue170006ERS4_, symObjAddr: 0xA00, symBinAddr: 0x1000056C8, symSize: 0x20 }
  - { offsetInCU: 0x7CE1, offset: 0x1A7A7, size: 0x8, addend: 0x0, symName: __ZNSt3__16vectorIPvNS_9allocatorIS1_EEE7__clearB8ue170006Ev, symObjAddr: 0xA20, symBinAddr: 0x1000056E8, symSize: 0x28 }
  - { offsetInCU: 0x7D05, offset: 0x1A7CB, size: 0x8, addend: 0x0, symName: __ZNKSt3__16vectorIPvNS_9allocatorIS1_EEE17__annotate_deleteB8ue170006Ev, symObjAddr: 0xA48, symBinAddr: 0x100005710, symSize: 0xB8 }
  - { offsetInCU: 0x7D29, offset: 0x1A7EF, size: 0x8, addend: 0x0, symName: __ZNSt3__116allocator_traitsINS_9allocatorIPvEEE10deallocateB8ue170006ERS3_PS2_m, symObjAddr: 0xB00, symBinAddr: 0x1000057C8, symSize: 0x34 }
  - { offsetInCU: 0x7D6B, offset: 0x1A831, size: 0x8, addend: 0x0, symName: __ZNSt3__16vectorIPvNS_9allocatorIS1_EEE7__allocB8ue170006Ev, symObjAddr: 0xB34, symBinAddr: 0x1000057FC, symSize: 0x28 }
  - { offsetInCU: 0x7D8F, offset: 0x1A855, size: 0x8, addend: 0x0, symName: __ZNKSt3__16vectorIPvNS_9allocatorIS1_EEE8capacityB8ue170006Ev, symObjAddr: 0xB5C, symBinAddr: 0x100005824, symSize: 0x40 }
  - { offsetInCU: 0x7DB3, offset: 0x1A879, size: 0x8, addend: 0x0, symName: __ZNSt3__16vectorIPvNS_9allocatorIS1_EEE22__base_destruct_at_endB8ue170006EPS1_, symObjAddr: 0xB9C, symBinAddr: 0x100005864, symSize: 0x8C }
  - { offsetInCU: 0x7DF5, offset: 0x1A8BB, size: 0x8, addend: 0x0, symName: __ZNSt3__116allocator_traitsINS_9allocatorIPvEEE7destroyB8ue170006IS2_vEEvRS3_PT_, symObjAddr: 0xC28, symBinAddr: 0x1000058F0, symSize: 0x2C }
  - { offsetInCU: 0x7E32, offset: 0x1A8F8, size: 0x8, addend: 0x0, symName: __ZNSt3__19allocatorIPvE7destroyB8ue170006EPS1_, symObjAddr: 0xC68, symBinAddr: 0x100005930, symSize: 0x14 }
  - { offsetInCU: 0x7E64, offset: 0x1A92A, size: 0x8, addend: 0x0, symName: __ZNKSt3__16vectorIPvNS_9allocatorIS1_EEE31__annotate_contiguous_containerB8ue170006EPKvS6_S6_S6_, symObjAddr: 0xC7C, symBinAddr: 0x100005944, symSize: 0x20 }
  - { offsetInCU: 0x7EB8, offset: 0x1A97E, size: 0x8, addend: 0x0, symName: __ZNKSt3__16vectorIPvNS_9allocatorIS1_EEE4dataB8ue170006Ev, symObjAddr: 0xC9C, symBinAddr: 0x100005964, symSize: 0x28 }
  - { offsetInCU: 0x7EDC, offset: 0x1A9A2, size: 0x8, addend: 0x0, symName: __ZNKSt3__16vectorIPvNS_9allocatorIS1_EEE4sizeB8ue170006Ev, symObjAddr: 0xCC4, symBinAddr: 0x10000598C, symSize: 0x28 }
  - { offsetInCU: 0x7F00, offset: 0x1A9C6, size: 0x8, addend: 0x0, symName: __ZNSt3__19allocatorIPvE10deallocateB8ue170006EPS1_m, symObjAddr: 0xCEC, symBinAddr: 0x1000059B4, symSize: 0x40 }
  - { offsetInCU: 0x7F40, offset: 0x1AA06, size: 0x8, addend: 0x0, symName: __ZNSt3__117__compressed_pairIPPvNS_9allocatorIS1_EEE6secondB8ue170006Ev, symObjAddr: 0xDA8, symBinAddr: 0x1000059F4, symSize: 0x24 }
  - { offsetInCU: 0x7F64, offset: 0x1AA2A, size: 0x8, addend: 0x0, symName: __ZNSt3__122__compressed_pair_elemINS_9allocatorIPvEELi1ELb1EE5__getB8ue170006Ev, symObjAddr: 0xDCC, symBinAddr: 0x100005A18, symSize: 0x14 }
  - { offsetInCU: 0x7F88, offset: 0x1AA4E, size: 0x8, addend: 0x0, symName: __ZNKSt3__16vectorIPvNS_9allocatorIS1_EEE9__end_capB8ue170006Ev, symObjAddr: 0xDE0, symBinAddr: 0x100005A2C, symSize: 0x28 }
  - { offsetInCU: 0x7FAC, offset: 0x1AA72, size: 0x8, addend: 0x0, symName: __ZNKSt3__117__compressed_pairIPPvNS_9allocatorIS1_EEE5firstB8ue170006Ev, symObjAddr: 0xE08, symBinAddr: 0x100005A54, symSize: 0x24 }
  - { offsetInCU: 0x7FD0, offset: 0x1AA96, size: 0x8, addend: 0x0, symName: __ZNKSt3__122__compressed_pair_elemIPPvLi0ELb0EE5__getB8ue170006Ev, symObjAddr: 0xE2C, symBinAddr: 0x100005A78, symSize: 0x14 }
  - { offsetInCU: 0x7FF4, offset: 0x1AABA, size: 0x8, addend: 0x0, symName: __ZNSt3__16vectorIPvNS_9allocatorIS1_EEE8__appendEmRKS1_, symObjAddr: 0xE40, symBinAddr: 0x100005A8C, symSize: 0x114 }
  - { offsetInCU: 0x805C, offset: 0x1AB22, size: 0x8, addend: 0x0, symName: __ZNSt3__16vectorIPvNS_9allocatorIS1_EEE17__destruct_at_endB8ue170006EPS1_, symObjAddr: 0xF54, symBinAddr: 0x100005BA0, symSize: 0x4C }
  - { offsetInCU: 0x809E, offset: 0x1AB64, size: 0x8, addend: 0x0, symName: __ZNSt3__16vectorIPvNS_9allocatorIS1_EEE9__end_capB8ue170006Ev, symObjAddr: 0xFA0, symBinAddr: 0x100005BEC, symSize: 0x28 }
  - { offsetInCU: 0x80C2, offset: 0x1AB88, size: 0x8, addend: 0x0, symName: __ZNSt3__16vectorIPvNS_9allocatorIS1_EEE18__construct_at_endEmRKS1_, symObjAddr: 0xFC8, symBinAddr: 0x100005C14, symSize: 0xD0 }
  - { offsetInCU: 0x8141, offset: 0x1AC07, size: 0x8, addend: 0x0, symName: __ZNKSt3__16vectorIPvNS_9allocatorIS1_EEE11__recommendB8ue170006Em, symObjAddr: 0x1098, symBinAddr: 0x100005CE4, symSize: 0xB4 }
  - { offsetInCU: 0x8194, offset: 0x1AC5A, size: 0x8, addend: 0x0, symName: __ZNSt3__114__split_bufferIPvRNS_9allocatorIS1_EEEC1EmmS4_, symObjAddr: 0x114C, symBinAddr: 0x100005D98, symSize: 0x44 }
  - { offsetInCU: 0x81E9, offset: 0x1ACAF, size: 0x8, addend: 0x0, symName: __ZNSt3__114__split_bufferIPvRNS_9allocatorIS1_EEE18__construct_at_endEmRKS1_, symObjAddr: 0x1190, symBinAddr: 0x100005DDC, symSize: 0xBC }
  - { offsetInCU: 0x823A, offset: 0x1AD00, size: 0x8, addend: 0x0, symName: __ZNSt3__114__split_bufferIPvRNS_9allocatorIS1_EEED1Ev, symObjAddr: 0x135C, symBinAddr: 0x100005FA8, symSize: 0x2C }
  - { offsetInCU: 0x8265, offset: 0x1AD2B, size: 0x8, addend: 0x0, symName: __ZNSt3__117__compressed_pairIPPvNS_9allocatorIS1_EEE5firstB8ue170006Ev, symObjAddr: 0x1388, symBinAddr: 0x100005FD4, symSize: 0x24 }
  - { offsetInCU: 0x8289, offset: 0x1AD4F, size: 0x8, addend: 0x0, symName: __ZNSt3__122__compressed_pair_elemIPPvLi0ELb0EE5__getB8ue170006Ev, symObjAddr: 0x13AC, symBinAddr: 0x100005FF8, symSize: 0x14 }
  - { offsetInCU: 0x82C6, offset: 0x1AD8C, size: 0x8, addend: 0x0, symName: __ZNSt3__16vectorIPvNS_9allocatorIS1_EEE21_ConstructTransactionC1B8ue170006ERS4_m, symObjAddr: 0x13C0, symBinAddr: 0x10000600C, symSize: 0x3C }
  - { offsetInCU: 0x830C, offset: 0x1ADD2, size: 0x8, addend: 0x0, symName: __ZNSt3__116allocator_traitsINS_9allocatorIPvEEE9constructB8ue170006IS2_JRKS2_EvEEvRS3_PT_DpOT0_, symObjAddr: 0x13FC, symBinAddr: 0x100006048, symSize: 0x34 }
  - { offsetInCU: 0x8365, offset: 0x1AE2B, size: 0x8, addend: 0x0, symName: __ZNSt3__16vectorIPvNS_9allocatorIS1_EEE21_ConstructTransactionD1B8ue170006Ev, symObjAddr: 0x1430, symBinAddr: 0x10000607C, symSize: 0x2C }
  - { offsetInCU: 0x838D, offset: 0x1AE53, size: 0x8, addend: 0x0, symName: __ZNSt3__16vectorIPvNS_9allocatorIS1_EEE21_ConstructTransactionC2B8ue170006ERS4_m, symObjAddr: 0x145C, symBinAddr: 0x1000060A8, symSize: 0x44 }
  - { offsetInCU: 0x83D3, offset: 0x1AE99, size: 0x8, addend: 0x0, symName: __ZNSt3__19allocatorIPvE9constructB8ue170006IS1_JRKS1_EEEvPT_DpOT0_, symObjAddr: 0x14A0, symBinAddr: 0x1000060EC, symSize: 0x28 }
  - { offsetInCU: 0x8429, offset: 0x1AEEF, size: 0x8, addend: 0x0, symName: __ZNSt3__16vectorIPvNS_9allocatorIS1_EEE21_ConstructTransactionD2B8ue170006Ev, symObjAddr: 0x14C8, symBinAddr: 0x100006114, symSize: 0x20 }
  - { offsetInCU: 0x8451, offset: 0x1AF17, size: 0x8, addend: 0x0, symName: __ZNKSt3__16vectorIPvNS_9allocatorIS1_EEE8max_sizeEv, symObjAddr: 0x14E8, symBinAddr: 0x100006134, symSize: 0x60 }
  - { offsetInCU: 0x8477, offset: 0x1AF3D, size: 0x8, addend: 0x0, symName: __ZNKSt3__16vectorIPvNS_9allocatorIS1_EEE20__throw_length_errorB8ue170006Ev, symObjAddr: 0x1548, symBinAddr: 0x100006194, symSize: 0x1C }
  - { offsetInCU: 0x84A5, offset: 0x1AF6B, size: 0x8, addend: 0x0, symName: __ZNSt3__116allocator_traitsINS_9allocatorIPvEEE8max_sizeB8ue170006IS3_vEEmRKS3_, symObjAddr: 0x15BC, symBinAddr: 0x1000061DC, symSize: 0x24 }
  - { offsetInCU: 0x84D3, offset: 0x1AF99, size: 0x8, addend: 0x0, symName: __ZNKSt3__16vectorIPvNS_9allocatorIS1_EEE7__allocB8ue170006Ev, symObjAddr: 0x15E0, symBinAddr: 0x100006200, symSize: 0x28 }
  - { offsetInCU: 0x8501, offset: 0x1AFC7, size: 0x8, addend: 0x0, symName: __ZNKSt3__19allocatorIPvE8max_sizeB8ue170006Ev, symObjAddr: 0x16A4, symBinAddr: 0x100006228, symSize: 0x14 }
  - { offsetInCU: 0x8525, offset: 0x1AFEB, size: 0x8, addend: 0x0, symName: __ZNKSt3__117__compressed_pairIPPvNS_9allocatorIS1_EEE6secondB8ue170006Ev, symObjAddr: 0x16B8, symBinAddr: 0x10000623C, symSize: 0x24 }
  - { offsetInCU: 0x8549, offset: 0x1B00F, size: 0x8, addend: 0x0, symName: __ZNKSt3__122__compressed_pair_elemINS_9allocatorIPvEELi1ELb1EE5__getB8ue170006Ev, symObjAddr: 0x16DC, symBinAddr: 0x100006260, symSize: 0x14 }
  - { offsetInCU: 0x856D, offset: 0x1B033, size: 0x8, addend: 0x0, symName: __ZNSt3__114__split_bufferIPvRNS_9allocatorIS1_EEEC2EmmS4_, symObjAddr: 0x1830, symBinAddr: 0x1000062C8, symSize: 0xD4 }
  - { offsetInCU: 0x85DF, offset: 0x1B0A5, size: 0x8, addend: 0x0, symName: __ZNSt3__117__compressed_pairIPPvRNS_9allocatorIS1_EEEC1B8ue170006IDnS5_EEOT_OT0_, symObjAddr: 0x1904, symBinAddr: 0x10000639C, symSize: 0x3C }
  - { offsetInCU: 0x8635, offset: 0x1B0FB, size: 0x8, addend: 0x0, symName: __ZNSt3__114__split_bufferIPvRNS_9allocatorIS1_EEE7__allocB8ue170006Ev, symObjAddr: 0x1980, symBinAddr: 0x100006418, symSize: 0x28 }
  - { offsetInCU: 0x8659, offset: 0x1B11F, size: 0x8, addend: 0x0, symName: __ZNSt3__114__split_bufferIPvRNS_9allocatorIS1_EEE9__end_capB8ue170006Ev, symObjAddr: 0x19A8, symBinAddr: 0x100006440, symSize: 0x28 }
  - { offsetInCU: 0x867D, offset: 0x1B143, size: 0x8, addend: 0x0, symName: __ZNSt3__117__compressed_pairIPPvRNS_9allocatorIS1_EEEC2B8ue170006IDnS5_EEOT_OT0_, symObjAddr: 0x19D0, symBinAddr: 0x100006468, symSize: 0x48 }
  - { offsetInCU: 0x86D3, offset: 0x1B199, size: 0x8, addend: 0x0, symName: __ZNSt3__122__compressed_pair_elemIRNS_9allocatorIPvEELi1ELb0EEC2B8ue170006IS4_vEEOT_, symObjAddr: 0x1A18, symBinAddr: 0x1000064B0, symSize: 0x20 }
  - { offsetInCU: 0x8713, offset: 0x1B1D9, size: 0x8, addend: 0x0, symName: __ZNSt3__19allocatorIPvE8allocateB8ue170006Em, symObjAddr: 0x1A38, symBinAddr: 0x1000064D0, symSize: 0x58 }
  - { offsetInCU: 0x8745, offset: 0x1B20B, size: 0x8, addend: 0x0, symName: __ZNSt3__117__compressed_pairIPPvRNS_9allocatorIS1_EEE6secondB8ue170006Ev, symObjAddr: 0x1B10, symBinAddr: 0x100006528, symSize: 0x28 }
  - { offsetInCU: 0x8769, offset: 0x1B22F, size: 0x8, addend: 0x0, symName: __ZNSt3__122__compressed_pair_elemIRNS_9allocatorIPvEELi1ELb0EE5__getB8ue170006Ev, symObjAddr: 0x1B38, symBinAddr: 0x100006550, symSize: 0x18 }
  - { offsetInCU: 0x878D, offset: 0x1B253, size: 0x8, addend: 0x0, symName: __ZNSt3__117__compressed_pairIPPvRNS_9allocatorIS1_EEE5firstB8ue170006Ev, symObjAddr: 0x1B50, symBinAddr: 0x100006568, symSize: 0x24 }
  - { offsetInCU: 0x87BB, offset: 0x1B281, size: 0x8, addend: 0x0, symName: __ZNSt3__114__split_bufferIPvRNS_9allocatorIS1_EEE21_ConstructTransactionC1B8ue170006EPPS1_m, symObjAddr: 0x1B74, symBinAddr: 0x10000658C, symSize: 0x3C }
  - { offsetInCU: 0x87FF, offset: 0x1B2C5, size: 0x8, addend: 0x0, symName: __ZNSt3__114__split_bufferIPvRNS_9allocatorIS1_EEE21_ConstructTransactionD1B8ue170006Ev, symObjAddr: 0x1BB0, symBinAddr: 0x1000065C8, symSize: 0x2C }
  - { offsetInCU: 0x8827, offset: 0x1B2ED, size: 0x8, addend: 0x0, symName: __ZNSt3__114__split_bufferIPvRNS_9allocatorIS1_EEE21_ConstructTransactionC2B8ue170006EPPS1_m, symObjAddr: 0x1BDC, symBinAddr: 0x1000065F4, symSize: 0x44 }
  - { offsetInCU: 0x886B, offset: 0x1B331, size: 0x8, addend: 0x0, symName: __ZNSt3__114__split_bufferIPvRNS_9allocatorIS1_EEE21_ConstructTransactionD2B8ue170006Ev, symObjAddr: 0x1C20, symBinAddr: 0x100006638, symSize: 0x20 }
  - { offsetInCU: 0x8893, offset: 0x1B359, size: 0x8, addend: 0x0, symName: __ZNSt3__116reverse_iteratorIPPvEC1B8ue170006ES2_, symObjAddr: 0x1CB8, symBinAddr: 0x1000066D0, symSize: 0x34 }
  - { offsetInCU: 0x88C9, offset: 0x1B38F, size: 0x8, addend: 0x0, symName: __ZNKSt3__116reverse_iteratorIPPvE4baseB8ue170006Ev, symObjAddr: 0x1CEC, symBinAddr: 0x100006704, symSize: 0x18 }
  - { offsetInCU: 0x88ED, offset: 0x1B3B3, size: 0x8, addend: 0x0, symName: __ZNKSt3__16vectorIPvNS_9allocatorIS1_EEE14__annotate_newB8ue170006Em, symObjAddr: 0x1D40, symBinAddr: 0x100006758, symSize: 0xAC }
  - { offsetInCU: 0x8943, offset: 0x1B409, size: 0x8, addend: 0x0, symName: __ZNKSt3__111__move_loopINS_17_ClassicAlgPolicyEEclB8ue170006INS_16reverse_iteratorIPPvEES7_S7_EENS_4pairIT_T1_EES9_T0_SA_, symObjAddr: 0x20DC, symBinAddr: 0x100006AF4, symSize: 0xA0 }
  - { offsetInCU: 0x89B1, offset: 0x1B477, size: 0x8, addend: 0x0, symName: __ZNSt3__18_IterOpsINS_17_ClassicAlgPolicyEE11__iter_moveB8ue170006IRNS_16reverse_iteratorIPPvEEEENS_9enable_ifIXsr12is_referenceIDTdeclsr3stdE7declvalIRT_EEEEE5valueEDTclsr3stdE4movedeclsr3stdE7declvalISB_EEEEE4typeEOSA_, symObjAddr: 0x2310, symBinAddr: 0x100006D28, symSize: 0x28 }
  - { offsetInCU: 0x89DD, offset: 0x1B4A3, size: 0x8, addend: 0x0, symName: __ZNKSt3__116reverse_iteratorIPPvEdeB8ue170006Ev, symObjAddr: 0x2338, symBinAddr: 0x100006D50, symSize: 0x28 }
  - { offsetInCU: 0x8A0F, offset: 0x1B4D5, size: 0x8, addend: 0x0, symName: __ZNSt3__116reverse_iteratorIPPvEppB8ue170006Ev, symObjAddr: 0x2360, symBinAddr: 0x100006D78, symSize: 0x20 }
  - { offsetInCU: 0x8A34, offset: 0x1B4FA, size: 0x8, addend: 0x0, symName: __ZNSt3__18_IterOpsINS_17_ClassicAlgPolicyEE25__validate_iter_referenceB8ue170006IRNS_16reverse_iteratorIPPvEEEEvv, symObjAddr: 0x2380, symBinAddr: 0x100006D98, symSize: 0x4 }
  - { offsetInCU: 0x8A52, offset: 0x1B518, size: 0x8, addend: 0x0, symName: __ZNSt3__118__unwrap_iter_implINS_16reverse_iteratorIPPvEELb0EE8__unwrapB8ue170006ES4_, symObjAddr: 0x2384, symBinAddr: 0x100006D9C, symSize: 0x24 }
  - { offsetInCU: 0x8A79, offset: 0x1B53F, size: 0x8, addend: 0x0, symName: __ZNSt3__14pairINS_16reverse_iteratorIPPvEES4_EC1B8ue170006IS4_S4_LS2_0EEEOT_OT0_, symObjAddr: 0x23A8, symBinAddr: 0x100006DC0, symSize: 0x3C }
  - { offsetInCU: 0x8AD6, offset: 0x1B59C, size: 0x8, addend: 0x0, symName: __ZNSt3__14pairINS_16reverse_iteratorIPPvEES4_EC2B8ue170006IS4_S4_LS2_0EEEOT_OT0_, symObjAddr: 0x23E4, symBinAddr: 0x100006DFC, symSize: 0x34 }
  - { offsetInCU: 0x8B34, offset: 0x1B5FA, size: 0x8, addend: 0x0, symName: __ZNSt3__118__unwrap_iter_implINS_16reverse_iteratorIPPvEELb0EE8__rewrapB8ue170006ES4_S4_, symObjAddr: 0x2418, symBinAddr: 0x100006E30, symSize: 0x2C }
  - { offsetInCU: 0x8B60, offset: 0x1B626, size: 0x8, addend: 0x0, symName: __ZNSt3__116reverse_iteratorIPPvEC2B8ue170006ES2_, symObjAddr: 0x2444, symBinAddr: 0x100006E5C, symSize: 0x28 }
  - { offsetInCU: 0x8B96, offset: 0x1B65C, size: 0x8, addend: 0x0, symName: __ZNSt3__114__split_bufferIPvRNS_9allocatorIS1_EEED2Ev, symObjAddr: 0x246C, symBinAddr: 0x100006E84, symSize: 0x8C }
  - { offsetInCU: 0x8BC1, offset: 0x1B687, size: 0x8, addend: 0x0, symName: __ZNSt3__114__split_bufferIPvRNS_9allocatorIS1_EEE5clearB8ue170006Ev, symObjAddr: 0x24F8, symBinAddr: 0x100006F10, symSize: 0x28 }
  - { offsetInCU: 0x8BE5, offset: 0x1B6AB, size: 0x8, addend: 0x0, symName: __ZNKSt3__114__split_bufferIPvRNS_9allocatorIS1_EEE8capacityB8ue170006Ev, symObjAddr: 0x2520, symBinAddr: 0x100006F38, symSize: 0x40 }
  - { offsetInCU: 0x8C09, offset: 0x1B6CF, size: 0x8, addend: 0x0, symName: __ZNSt3__114__split_bufferIPvRNS_9allocatorIS1_EEE17__destruct_at_endB8ue170006EPS1_, symObjAddr: 0x2560, symBinAddr: 0x100006F78, symSize: 0x2C }
  - { offsetInCU: 0x8C3B, offset: 0x1B701, size: 0x8, addend: 0x0, symName: __ZNSt3__114__split_bufferIPvRNS_9allocatorIS1_EEE17__destruct_at_endB8ue170006EPS1_NS_17integral_constantIbLb0EEE, symObjAddr: 0x258C, symBinAddr: 0x100006FA4, symSize: 0x80 }
  - { offsetInCU: 0x8C79, offset: 0x1B73F, size: 0x8, addend: 0x0, symName: __ZNKSt3__114__split_bufferIPvRNS_9allocatorIS1_EEE9__end_capB8ue170006Ev, symObjAddr: 0x260C, symBinAddr: 0x100007024, symSize: 0x28 }
  - { offsetInCU: 0x8C9D, offset: 0x1B763, size: 0x8, addend: 0x0, symName: __ZNKSt3__117__compressed_pairIPPvRNS_9allocatorIS1_EEE5firstB8ue170006Ev, symObjAddr: 0x2634, symBinAddr: 0x10000704C, symSize: 0x24 }
  - { offsetInCU: 0x8CC1, offset: 0x1B787, size: 0x8, addend: 0x0, symName: __ZNKSt3__16vectorIPvNS_9allocatorIS1_EEE17__annotate_shrinkB8ue170006Em, symObjAddr: 0x2658, symBinAddr: 0x100007070, symSize: 0xB4 }
  - { offsetInCU: 0x8CF4, offset: 0x1B7BA, size: 0x8, addend: 0x0, symName: __ZNSt3__16vectorIPvNS_9allocatorIS1_EEE11__make_iterB8ue170006EPS1_, symObjAddr: 0x270C, symBinAddr: 0x100007124, symSize: 0x30 }
  - { offsetInCU: 0x8D27, offset: 0x1B7ED, size: 0x8, addend: 0x0, symName: __ZNSt3__111__wrap_iterIPPvEC1B8ue170006ES2_, symObjAddr: 0x273C, symBinAddr: 0x100007154, symSize: 0x34 }
  - { offsetInCU: 0x8D5D, offset: 0x1B823, size: 0x8, addend: 0x0, symName: __ZNSt3__111__wrap_iterIPPvEC2B8ue170006ES2_, symObjAddr: 0x2770, symBinAddr: 0x100007188, symSize: 0x20 }
  - { offsetInCU: 0x26, offset: 0x1B8FC, size: 0x8, addend: 0x0, symName: __ZN9ChainNodeC2EiRKNSt3__112basic_stringIcNS0_11char_traitsIcEENS0_9allocatorIcEEEE, symObjAddr: 0x0, symBinAddr: 0x1000071A8, symSize: 0x40 }
  - { offsetInCU: 0x5231, offset: 0x20B07, size: 0x8, addend: 0x0, symName: __ZN9ChainNodeC2EiRKNSt3__112basic_stringIcNS0_11char_traitsIcEENS0_9allocatorIcEEEE, symObjAddr: 0x0, symBinAddr: 0x1000071A8, symSize: 0x40 }
  - { offsetInCU: 0x5278, offset: 0x20B4E, size: 0x8, addend: 0x0, symName: __ZN9ChainNodeC1EiRKNSt3__112basic_stringIcNS0_11char_traitsIcEENS0_9allocatorIcEEEE, symObjAddr: 0x40, symBinAddr: 0x1000071E8, symSize: 0x3C }
  - { offsetInCU: 0x26, offset: 0x20BBB, size: 0x8, addend: 0x0, symName: __ZN5ChainC2Ev, symObjAddr: 0x0, symBinAddr: 0x100007224, symSize: 0x18 }
  - { offsetInCU: 0x52D5, offset: 0x25E6A, size: 0x8, addend: 0x0, symName: __ZN5ChainC2Ev, symObjAddr: 0x0, symBinAddr: 0x100007224, symSize: 0x18 }
  - { offsetInCU: 0x5300, offset: 0x25E95, size: 0x8, addend: 0x0, symName: __ZN5ChainC1Ev, symObjAddr: 0x18, symBinAddr: 0x10000723C, symSize: 0x2C }
  - { offsetInCU: 0x532B, offset: 0x25EC0, size: 0x8, addend: 0x0, symName: __ZN5ChainD2Ev, symObjAddr: 0x44, symBinAddr: 0x100007268, symSize: 0x90 }
  - { offsetInCU: 0x538E, offset: 0x25F23, size: 0x8, addend: 0x0, symName: __ZN9ChainNodeD1Ev, symObjAddr: 0xD4, symBinAddr: 0x1000072F8, symSize: 0x2C }
  - { offsetInCU: 0x53B9, offset: 0x25F4E, size: 0x8, addend: 0x0, symName: __ZN5ChainD1Ev, symObjAddr: 0x100, symBinAddr: 0x100007324, symSize: 0x2C }
  - { offsetInCU: 0x53E4, offset: 0x25F79, size: 0x8, addend: 0x0, symName: __ZN5Chain6insertEiRKNSt3__112basic_stringIcNS0_11char_traitsIcEENS0_9allocatorIcEEEE, symObjAddr: 0x12C, symBinAddr: 0x100007350, symSize: 0xD4 }
  - { offsetInCU: 0x5435, offset: 0x25FCA, size: 0x8, addend: 0x0, symName: __ZNK5Chain4findEi, symObjAddr: 0x200, symBinAddr: 0x100007424, symSize: 0x88 }
  - { offsetInCU: 0x5478, offset: 0x2600D, size: 0x8, addend: 0x0, symName: __ZN5Chain6removeEi, symObjAddr: 0x288, symBinAddr: 0x1000074AC, symSize: 0x118 }
  - { offsetInCU: 0x54C9, offset: 0x2605E, size: 0x8, addend: 0x0, symName: __ZN9ChainNodeD2Ev, symObjAddr: 0x3A0, symBinAddr: 0x1000075C4, symSize: 0x2C }
...
